"File: iap.c         Assembler  Version HGASM0202      Page 1


   1  0000              ; Generated by holtek-gcc v3.19, Thu May 23 14:41:50 2024
   2  0000              ; 
   3  0000              ; Configuration:
   4  0000              ;       with long instruction
   5  0000              ;       Single ROM, Multi-RAM
   6  0000              ;       bits_per_rom_unit:16
   7  0000              ;       with mp1
   8  0000              ;       with tbhp, address(0x9)
   9  0000              ;          Use tabrd-const
  10  0000              ;       
  11  0000              ; SFR address of long-instruction arch:
  12  0000              ;    mp0 = -1,1,0
  13  0000              ;    mp1 = 4,3,2
  14  0000              ;    mp2 = 14,13,12
  15  0000              ;    tbp = 9,7,8
  16  0000              ;    acc = 5
  17  0000              ;    pcl = 6
  18  0000              ;    status = 10
  19  0000              ;    bp = 11
  20  0000              ;    intc = 16
  21  0000              ;       
  22  0000              ;       
  23  0000              ; use 'tabrdc' instead of 'tabrd'
  24  0000              ;       
  25  0000              
  26  0000              #pragma translator "holtek-gcc 4.6.4" "3.19" "build 20130711"
  27  0000              ; Rebuild 718
  28  0000              
  29  0000              ir equ [2]
  30  0000              mp equ [3]
  31  0000              sbp equ [4]
  32  0000              acc equ [5]
  33  0000              bp equ [11]
  34  0000              tblp equ [7]
  35  0000              tbhp equ [9]
  36  0000              status equ [10]
  37  0000              c equ [10].0
  38  0000              ac equ [10].1
  39  0000              z equ [10].2
  40  0000              ov equ [10].3
  41  0000              cz equ [10].6
  42  0000              sc equ [10].7
  43  0000              intc equ [16]
  44  0000              
  45  0000              extern ra:byte
  46  0000              extern rb:byte
  47  0000              extern rc:byte
  48  0000              extern rd:byte
  49  0000              extern re:byte
  50  0000              extern rf:byte
  51  0000              extern rg:byte
  52  0000              extern rh:byte
  53  0000              extern _Crom2Prom:near
  54  0000              extern _Crom2PromNext:near
  55  0000              
  56  0000              RAMBANK 0 @BITDATASEC, @BITDATASEC1
  57  0000              @HCCINIT	.section 'data'
  58  0000              @HCCINIT0	.section 'data'
  59  0000              @BITDATASEC	 .section 'data'
"File: iap.ASM       Assembler  Version HGASM0202      Page 2

  60  0000              @BITDATASEC1	 .section 'data'
  61  0000              
  62  0000              #pragma debug scope 1 1
  63  0000              	extern __DELAY3:near
  64  0000              	extern __DELAYX3:near
  65  0000              	extern __DELAYX6:near
  66  0000              	extern __DELAYY5:near
  67  0000              	extern __DELAYY3:near
  68  0000              	extern _builtin_holtek_delay_2:byte
  69  0000              ___fc0 equ [64]
  70  0000              ___fd1l equ [71]
  71  0000              ___fd1h equ [72]
  72  0000              ___fd2l equ [73]
  73  0000              ___fd2h equ [74]
  74  0000              ___fd3l equ [75]
  75  0000              ___fd3h equ [76]
  76  0000              public _IAP_ew_en_proc
  77  0000              #pragma debug scope 2 1

  40  0000              #line 40 "d:\sigfox-ep-example-holtek-bc68f2150-master-tb0\drivers\src\iap.c"
  40  0000              _IAP_ew_en_proc .section 'code'
  40  0000              _IAP_ew_en_proc proc
  41  0000              #line 41 "d:\sigfox-ep-example-holtek-bc68f2150-master-tb0\drivers\src\iap.c"
  41  0000  3640        	clr [64].4
  42  0001              #line 42 "d:\sigfox-ep-example-holtek-bc68f2150-master-tb0\drivers\src\iap.c"
  42  0001  32C0        	set [64].5
  43  0002              #line 43 "d:\sigfox-ep-example-holtek-bc68f2150-master-tb0\drivers\src\iap.c"
  43  0002  3340        	set [64].6
  44  0003              #line 44 "d:\sigfox-ep-example-holtek-bc68f2150-master-tb0\drivers\src\iap.c"
  44  0003  31C0        	set [64].3
  45  0004              #line 45 "d:\sigfox-ep-example-holtek-bc68f2150-master-tb0\drivers\src\iap.c"
  45  0004  1F47        	clr [71]
  46  0005              #line 46 "d:\sigfox-ep-example-holtek-bc68f2150-master-tb0\drivers\src\iap.c"
  46  0005  0F04        	mov a,4
  46  0006  00C8        	mov [72],a
  47  0007              #line 47 "d:\sigfox-ep-example-holtek-bc68f2150-master-tb0\drivers\src\iap.c"
  47  0007  0F0D        	mov a,13
  47  0008  00C9        	mov [73],a
  48  0009              #line 48 "d:\sigfox-ep-example-holtek-bc68f2150-master-tb0\drivers\src\iap.c"
  48  0009  0F09        	mov a,9
  48  000A  00CA        	mov [74],a
  49  000B              #line 49 "d:\sigfox-ep-example-holtek-bc68f2150-master-tb0\drivers\src\iap.c"
  49  000B  0FC3        	mov a,195
  49  000C  00CB        	mov [75],a
  50  000D              #line 50 "d:\sigfox-ep-example-holtek-bc68f2150-master-tb0\drivers\src\iap.c"
  50  000D  0F40        	mov a,64
  50  000E  00CC        	mov [76],a
  50  000F              _L2:
  51  000F              #line 51 "d:\sigfox-ep-example-holtek-bc68f2150-master-tb0\drivers\src\iap.c"
  51  000F  39C0        	snz [64].3
  51  0010  2800     R  	jmp _L5
  52  0011              #line 52 "d:\sigfox-ep-example-holtek-bc68f2150-master-tb0\drivers\src\iap.c"
  52  0011              ;# 52 "d:\sigfox-ep-example-holtek-bc68f2150-master-tb0\drivers\src\iap.c" 1
  52  0011  0001        	clr wdt
  52  0012  2800     R  	jmp _L2
  52  0013              _L5:
  53  0013              #line 53 "d:\sigfox-ep-example-holtek-bc68f2150-master-tb0\drivers\src\iap.c"
  53  0013  0140        	cpla [64]
  53  0014  0080     E  	mov ra,a
  53  0015  1A80     E  	rlc ra
"File: iap.c         Assembler  Version HGASM0202      Page 3

  53  0016  1F00     E  	clr ra
  53  0017  1A80     E  	rlc ra
  57  0018              #line 57 "d:\sigfox-ep-example-holtek-bc68f2150-master-tb0\drivers\src\iap.c"
  57  0018  0700     E  	mov a,ra
  57  0019  0003        	ret
  57  001A              _IAP_ew_en_proc endp
  57  001A              #line 57 "d:\sigfox-ep-example-holtek-bc68f2150-master-tb0\drivers\src\iap.c"
  57  001A              #pragma debug scope 1 1
  57  001A              ___farh equ [68]
  57  001A              ___farl equ [67]
  57  001A              ___fd0l equ [69]
  57  001A              ___fd0h equ [70]
  57  001A              public _IAP_read
  57  001A              #pragma debug scope 3 1
  58  001A              #line 58 "d:\sigfox-ep-example-holtek-bc68f2150-master-tb0\drivers\src\iap.c"
  58  0000              _IAP_read .section 'code'
  58  0000              _IAP_read proc
  58  0000              public _IAP_read_2
  58  0000  0005[           local _IAP_read_2 db 5 dup(?)	; 5,0
            00
            ]
  58  0005              #pragma debug variable 10 3 _IAP_read_2+0 "add"
  58  0005              #pragma debug pointer 42 10 3
  58  0005              #pragma debug pointer 42 10 3
  58  0005              #pragma debug variable 42 3 _IAP_read_2+2 "flash_word"
  58  0005              #pragma debug variable 8 3 _IAP_read_2+4 "len"
  60  0005              #line 60 "d:\sigfox-ep-example-holtek-bc68f2150-master-tb0\drivers\src\iap.c"
  60  0000  0F8D        	mov a,141
  60  0001  06C0        	andm a,[64]
  61  0002              #line 61 "d:\sigfox-ep-example-holtek-bc68f2150-master-tb0\drivers\src\iap.c"
  61  0002  0F32        	mov a,50
  61  0003  05C0        	orm a,[64]
  62  0004              #line 62 "d:\sigfox-ep-example-holtek-bc68f2150-master-tb0\drivers\src\iap.c"
  62  0004  0700     R  	mov a,_IAP_read_2[0]
  62  0005  0080     E  	mov rb,a
  62  0006  0700     R  	mov a,_IAP_read_2[1]
  62  0007  0080     E  	mov rc,a
  62  0008  1F00     E  	clr ra
  62  0009              _L7:
  62  0009              #line 62 "d:\sigfox-ep-example-holtek-bc68f2150-master-tb0\drivers\src\iap.c"
  62  0009  0700     E  	mov a,ra
  62  000A  0200     R  	sub a,_IAP_read_2[4]
  62  000B  3D0A        	sz z
  62  000C  2800     R  	jmp _L11
  64  000D              #line 64 "d:\sigfox-ep-example-holtek-bc68f2150-master-tb0\drivers\src\iap.c"
  64  000D  0700     E  	mov a,rc
  64  000E  0E1F        	and a,31
  64  000F  00C4        	mov [68],a
  65  0010              #line 65 "d:\sigfox-ep-example-holtek-bc68f2150-master-tb0\drivers\src\iap.c"
  65  0010  0700     E  	mov a,ra
  65  0011  0300     R  	add a,_IAP_read_2[0]
  65  0012  00C3        	mov [67],a
  66  0013              #line 66 "d:\sigfox-ep-example-holtek-bc68f2150-master-tb0\drivers\src\iap.c"
  66  0013  3040        	set [64].0
  66  0014              _L8:
  68  0014              #line 68 "d:\sigfox-ep-example-holtek-bc68f2150-master-tb0\drivers\src\iap.c"
  68  0014  3840        	snz [64].0
  68  0015  2800     R  	jmp _L12
  69  0016              #line 69 "d:\sigfox-ep-example-holtek-bc68f2150-master-tb0\drivers\src\iap.c"
  69  0016              ;# 69 "d:\sigfox-ep-example-holtek-bc68f2150-master-tb0\drivers\src\iap.c" 1
"File: iap.c         Assembler  Version HGASM0202      Page 4

  69  0016  0001        	clr wdt
  69  0017  2800     R  	jmp _L8
  69  0018              _L12:
  73  0018              #line 73 "d:\sigfox-ep-example-holtek-bc68f2150-master-tb0\drivers\src\iap.c"
  73  0018  0746        	mov a,[70]
  73  0019  0080     E  	mov re,a
  73  001A  1F00     E  	clr rd
  73  001B  0700     E  	mov a,re
  73  001C  0080     E  	mov rg,a
  73  001D  0745        	mov a,[69]
  73  001E  0500     E  	or a,rd
  73  001F  0080     E  	mov rf,a
  73  0020  0700     R  	mov a,_IAP_read_2[2]
  73  0021  0083        	mov mp,a
  73  0022  0700     R  	mov a,_IAP_read_2[3]
  73  0023  0084        	mov sbp,a
  73  0024  0700     E  	mov a,rf
  73  0025  0082        	mov ir,a
  73  0026  1483        	inc mp
  73  0027  0700     E  	mov a,rg
  73  0028  0082        	mov ir,a
  74  0029              #line 74 "d:\sigfox-ep-example-holtek-bc68f2150-master-tb0\drivers\src\iap.c"
  74  0029  0F02        	mov a,2
  74  002A  0380     R  	addm a,_IAP_read_2[2]
  74  002B  0F00        	mov a,0
  74  002C  1380     R  	adcm a,_IAP_read_2[3]
  77  002D              #line 77 "d:\sigfox-ep-example-holtek-bc68f2150-master-tb0\drivers\src\iap.c"
  77  002D  1480     E  	inc rb
  77  002E  3D0A        	sz z
  77  002F  1480     E  	inc rc
  77  0030  1480     E  	inc ra
  77  0031  2800     R  	jmp _L7
  77  0032              _L11:
  80  0032              #line 80 "d:\sigfox-ep-example-holtek-bc68f2150-master-tb0\drivers\src\iap.c"
  80  0032  34C0        	clr [64].1
  82  0033              #line 82 "d:\sigfox-ep-example-holtek-bc68f2150-master-tb0\drivers\src\iap.c"
  82  0033  0F00        	mov a,0
  82  0034  0003        	ret
  82  0035              _IAP_read endp
  82  0035              #line 82 "d:\sigfox-ep-example-holtek-bc68f2150-master-tb0\drivers\src\iap.c"
  82  0035              #pragma debug scope 1 1
  82  0035              public _IAP_write
  82  0035              #pragma debug scope 4 1
  84  0035              #line 84 "d:\sigfox-ep-example-holtek-bc68f2150-master-tb0\drivers\src\iap.c"
  84  0000              _IAP_write .section 'code'
  84  0000              _IAP_write proc
  84  0000              public _IAP_write_2
  84  0000  0006[           local _IAP_write_2 db 6 dup(?)	; 6,0
            00
            ]
  84  0006              #pragma debug variable 10 4 _IAP_write_2+0 "add"
  84  0006              #pragma debug pointer 43 10 4
  84  0006              #pragma debug pointer 43 10 4
  84  0006              #pragma debug variable 43 4 _IAP_write_2+2 "flash_word"
  84  0006              #pragma debug variable 8 4 _IAP_write_2+4 "len"
  84  0006              #pragma debug variable 7 4 _IAP_write_2+5 "erase_before"
  86  0006              #line 86 "d:\sigfox-ep-example-holtek-bc68f2150-master-tb0\drivers\src\iap.c"
  86  0000  2000     R  	call _IAP_ew_en_proc
  86  0001  0080     E  	mov ra,a
  86  0002  1080     E  	sz ra
"File: iap.c         Assembler  Version HGASM0202      Page 5

  86  0003  2800     R  	jmp _L31
  89  0004              #line 89 "d:\sigfox-ep-example-holtek-bc68f2150-master-tb0\drivers\src\iap.c"
  89  0004  1E00     R  	snz _IAP_write_2[5]
  89  0005  2800     R  	jmp _L16
  91  0006              #line 91 "d:\sigfox-ep-example-holtek-bc68f2150-master-tb0\drivers\src\iap.c"
  91  0006  0700     R  	mov a,_IAP_write_2[1]
  91  0007  0E1F        	and a,31
  91  0008  00C4        	mov [68],a
  92  0009              #line 92 "d:\sigfox-ep-example-holtek-bc68f2150-master-tb0\drivers\src\iap.c"
  92  0009  0700     R  	mov a,_IAP_write_2[0]
  92  000A  00C3        	mov [67],a
  93  000B              #line 93 "d:\sigfox-ep-example-holtek-bc68f2150-master-tb0\drivers\src\iap.c"
  93  000B  3240        	set [64].4
  94  000C              #line 94 "d:\sigfox-ep-example-holtek-bc68f2150-master-tb0\drivers\src\iap.c"
  94  000C  36C0        	clr [64].5
  95  000D              #line 95 "d:\sigfox-ep-example-holtek-bc68f2150-master-tb0\drivers\src\iap.c"
  95  000D  3740        	clr [64].6
  96  000E              #line 96 "d:\sigfox-ep-example-holtek-bc68f2150-master-tb0\drivers\src\iap.c"
  96  000E  3140        	set [64].2
  96  000F              _L18:
  97  000F              #line 97 "d:\sigfox-ep-example-holtek-bc68f2150-master-tb0\drivers\src\iap.c"
  97  000F  3D40        	sz [64].2
  97  0010  2800     R  	jmp _L18
  97  0011  2800     R  	jmp _L16
  97  0012              _L30:
 101  0012              #line 101 "d:\sigfox-ep-example-holtek-bc68f2150-master-tb0\drivers\src\iap.c"
 101  0012  3640        	clr [64].4
 102  0013              #line 102 "d:\sigfox-ep-example-holtek-bc68f2150-master-tb0\drivers\src\iap.c"
 102  0013  36C0        	clr [64].5
 103  0014              #line 103 "d:\sigfox-ep-example-holtek-bc68f2150-master-tb0\drivers\src\iap.c"
 103  0014  3740        	clr [64].6
 104  0015              #line 104 "d:\sigfox-ep-example-holtek-bc68f2150-master-tb0\drivers\src\iap.c"
 104  0015  1FC5        	set [69]
 105  0016              #line 105 "d:\sigfox-ep-example-holtek-bc68f2150-master-tb0\drivers\src\iap.c"
 105  0016  1FC6        	set [70]
 106  0017              #line 106 "d:\sigfox-ep-example-holtek-bc68f2150-master-tb0\drivers\src\iap.c"
 106  0017  1FC7        	set [71]
 107  0018              #line 107 "d:\sigfox-ep-example-holtek-bc68f2150-master-tb0\drivers\src\iap.c"
 107  0018  1FC8        	set [72]
 108  0019              #line 108 "d:\sigfox-ep-example-holtek-bc68f2150-master-tb0\drivers\src\iap.c"
 108  0019  1FC9        	set [73]
 109  001A              #line 109 "d:\sigfox-ep-example-holtek-bc68f2150-master-tb0\drivers\src\iap.c"
 109  001A  1FCA        	set [74]
 110  001B              #line 110 "d:\sigfox-ep-example-holtek-bc68f2150-master-tb0\drivers\src\iap.c"
 110  001B  1FCB        	set [75]
 111  001C              #line 111 "d:\sigfox-ep-example-holtek-bc68f2150-master-tb0\drivers\src\iap.c"
 111  001C  1FCC        	set [76]
 113  001D              #line 113 "d:\sigfox-ep-example-holtek-bc68f2150-master-tb0\drivers\src\iap.c"
 113  001D  0700     R  	mov a,_IAP_write_2[2]
 113  001E  0080     E  	mov rb,a
 113  001F  0700     R  	mov a,_IAP_write_2[3]
 113  0020  0080     E  	mov rc,a
 113  0021  0700     E  	mov a,rb
 113  0022  0083        	mov mp,a
 113  0023  0700     E  	mov a,rc
 113  0024  0084        	mov sbp,a
 113  0025  2000     E  	call _Crom2Prom
 113  0026  0080     E  	mov rd,a
 113  0027  2000     E  	call _Crom2PromNext
 113  0028  0080     E  	mov re,a
"File: iap.c         Assembler  Version HGASM0202      Page 6

 113  0029  0700     E  	mov a,rd
 113  002A  00C5        	mov [69],a
 114  002B              #line 114 "d:\sigfox-ep-example-holtek-bc68f2150-master-tb0\drivers\src\iap.c"
 114  002B  0700     E  	mov a,re
 114  002C  00C6        	mov [70],a
 117  002D              #line 117 "d:\sigfox-ep-example-holtek-bc68f2150-master-tb0\drivers\src\iap.c"
 117  002D  1700     R  	sdza _IAP_write_2[4]
 117  002E  2800     R  	jmp _L19
 118  002F              #line 118 "d:\sigfox-ep-example-holtek-bc68f2150-master-tb0\drivers\src\iap.c"
 118  002F  3140        	set [64].2
 118  0030              _L22:
 119  0030              #line 119 "d:\sigfox-ep-example-holtek-bc68f2150-master-tb0\drivers\src\iap.c"
 119  0030  3D40        	sz [64].2
 119  0031  2800     R  	jmp _L22
 115  0032              #line 115 "d:\sigfox-ep-example-holtek-bc68f2150-master-tb0\drivers\src\iap.c"
 115  0032  0F02        	mov a,2
 115  0033  0380     R  	addm a,_IAP_write_2[2]
 115  0034  0F00        	mov a,0
 115  0035  1380     R  	adcm a,_IAP_write_2[3]
 115  0036              _L38:
 133  0036              #line 133 "d:\sigfox-ep-example-holtek-bc68f2150-master-tb0\drivers\src\iap.c"
 133  0036  1F00     R  	clr _IAP_write_2[4]
 133  0037              _L16:
 100  0037              #line 100 "d:\sigfox-ep-example-holtek-bc68f2150-master-tb0\drivers\src\iap.c"
 100  0037  1080     R  	sz _IAP_write_2[4]
 100  0038  2800     R  	jmp _L30
 100  0039  2800     R  	jmp _L39
 100  003A              _L19:
 122  003A              #line 122 "d:\sigfox-ep-example-holtek-bc68f2150-master-tb0\drivers\src\iap.c"
 122  003A  0F02        	mov a,2
 122  003B  0300     E  	add a,rb
 122  003C  0083        	mov mp,a
 122  003D  0F00        	mov a,0
 122  003E  1300     E  	adc a,rc
 122  003F  0084        	mov sbp,a
 122  0040  2000     E  	call _Crom2Prom
 122  0041  0080     E  	mov rd,a
 122  0042  2000     E  	call _Crom2PromNext
 122  0043  0080     E  	mov re,a
 122  0044  0700     E  	mov a,rd
 122  0045  00C7        	mov [71],a
 123  0046              #line 123 "d:\sigfox-ep-example-holtek-bc68f2150-master-tb0\drivers\src\iap.c"
 123  0046  0700     E  	mov a,re
 123  0047  00C8        	mov [72],a
 126  0048              #line 126 "d:\sigfox-ep-example-holtek-bc68f2150-master-tb0\drivers\src\iap.c"
 126  0048  0700     R  	mov a,_IAP_write_2[4]
 126  0049  0A02        	sub a,2
 126  004A  390A        	snz z
 126  004B  2800     R  	jmp _L23
 127  004C              #line 127 "d:\sigfox-ep-example-holtek-bc68f2150-master-tb0\drivers\src\iap.c"
 127  004C  3140        	set [64].2
 127  004D              _L25:
 128  004D              #line 128 "d:\sigfox-ep-example-holtek-bc68f2150-master-tb0\drivers\src\iap.c"
 128  004D  3D40        	sz [64].2
 128  004E  2800     R  	jmp _L25
 124  004F              #line 124 "d:\sigfox-ep-example-holtek-bc68f2150-master-tb0\drivers\src\iap.c"
 124  004F  0F04        	mov a,4
 124  0050  0380     R  	addm a,_IAP_write_2[2]
 124  0051  0F00        	mov a,0
 124  0052  1380     R  	adcm a,_IAP_write_2[3]
"File: iap.c         Assembler  Version HGASM0202      Page 7

 124  0053  2800     R  	jmp _L38
 124  0054              _L23:
 131  0054              #line 131 "d:\sigfox-ep-example-holtek-bc68f2150-master-tb0\drivers\src\iap.c"
 131  0054  0F04        	mov a,4
 131  0055  0300     E  	add a,rb
 131  0056  0083        	mov mp,a
 131  0057  0F00        	mov a,0
 131  0058  1300     E  	adc a,rc
 131  0059  0084        	mov sbp,a
 131  005A  2000     E  	call _Crom2Prom
 131  005B  0080     E  	mov rd,a
 131  005C  2000     E  	call _Crom2PromNext
 131  005D  0080     E  	mov re,a
 131  005E  0700     E  	mov a,rd
 131  005F  00C9        	mov [73],a
 132  0060              #line 132 "d:\sigfox-ep-example-holtek-bc68f2150-master-tb0\drivers\src\iap.c"
 132  0060  0700     E  	mov a,re
 132  0061  00CA        	mov [74],a
 135  0062              #line 135 "d:\sigfox-ep-example-holtek-bc68f2150-master-tb0\drivers\src\iap.c"
 135  0062  0700     R  	mov a,_IAP_write_2[4]
 135  0063  0A03        	sub a,3
 135  0064  390A        	snz z
 135  0065  2800     R  	jmp _L26
 136  0066              #line 136 "d:\sigfox-ep-example-holtek-bc68f2150-master-tb0\drivers\src\iap.c"
 136  0066  3140        	set [64].2
 136  0067              _L28:
 137  0067              #line 137 "d:\sigfox-ep-example-holtek-bc68f2150-master-tb0\drivers\src\iap.c"
 137  0067  3D40        	sz [64].2
 137  0068  2800     R  	jmp _L28
 133  0069              #line 133 "d:\sigfox-ep-example-holtek-bc68f2150-master-tb0\drivers\src\iap.c"
 133  0069  0F06        	mov a,6
 133  006A  0380     R  	addm a,_IAP_write_2[2]
 133  006B  0F00        	mov a,0
 133  006C  1380     R  	adcm a,_IAP_write_2[3]
 133  006D  2800     R  	jmp _L38
 133  006E              _L26:
 140  006E              #line 140 "d:\sigfox-ep-example-holtek-bc68f2150-master-tb0\drivers\src\iap.c"
 140  006E  0F06        	mov a,6
 140  006F  0300     E  	add a,rb
 140  0070  0083        	mov mp,a
 140  0071  0F00        	mov a,0
 140  0072  1300     E  	adc a,rc
 140  0073  0084        	mov sbp,a
 140  0074  2000     E  	call _Crom2Prom
 140  0075  0080     E  	mov rb,a
 140  0076  2000     E  	call _Crom2PromNext
 140  0077  0080     E  	mov rc,a
 140  0078  0700     E  	mov a,rb
 140  0079  00CB        	mov [75],a
 141  007A              #line 141 "d:\sigfox-ep-example-holtek-bc68f2150-master-tb0\drivers\src\iap.c"
 141  007A  0700     E  	mov a,rc
 141  007B  00CC        	mov [76],a
 142  007C              #line 142 "d:\sigfox-ep-example-holtek-bc68f2150-master-tb0\drivers\src\iap.c"
 142  007C  0F08        	mov a,8
 142  007D  0380     R  	addm a,_IAP_write_2[2]
 142  007E  0F00        	mov a,0
 142  007F  1380     R  	adcm a,_IAP_write_2[3]
 143  0080              #line 143 "d:\sigfox-ep-example-holtek-bc68f2150-master-tb0\drivers\src\iap.c"
 143  0080  0FFC        	mov a,252
 143  0081  0380     R  	addm a,_IAP_write_2[4]
"File: iap.c         Assembler  Version HGASM0202      Page 8

 144  0082              #line 144 "d:\sigfox-ep-example-holtek-bc68f2150-master-tb0\drivers\src\iap.c"
 144  0082  3140        	set [64].2
 144  0083              _L29:
 145  0083              #line 145 "d:\sigfox-ep-example-holtek-bc68f2150-master-tb0\drivers\src\iap.c"
 145  0083  3D40        	sz [64].2
 145  0084  2800     R  	jmp _L29
 145  0085  2800     R  	jmp _L16
 145  0086              _L39:
 147  0086              #line 147 "d:\sigfox-ep-example-holtek-bc68f2150-master-tb0\drivers\src\iap.c"
 147  0086  37C0        	clr [64].7
 148  0087              #line 148 "d:\sigfox-ep-example-holtek-bc68f2150-master-tb0\drivers\src\iap.c"
 148  0087  1F00     E  	clr ra
 148  0088  2800     R  	jmp _L14
 148  0089              _L31:
  87  0089              #line 87 "d:\sigfox-ep-example-holtek-bc68f2150-master-tb0\drivers\src\iap.c"
  87  0089  0F01        	mov a,1
  87  008A  0080     E  	mov ra,a
  87  008B              _L14:
 149  008B              #line 149 "d:\sigfox-ep-example-holtek-bc68f2150-master-tb0\drivers\src\iap.c"
 149  008B  0700     E  	mov a,ra
 149  008C  0003        	ret
 149  008D              _IAP_write endp
 149  008D              #line 149 "d:\sigfox-ep-example-holtek-bc68f2150-master-tb0\drivers\src\iap.c"
 149  008D              #pragma debug scope 1 1
 149  008D              #pragma debug struct_end
 149  008D              #pragma debug struct_end
 149  008D              #pragma debug union_end
 149  008D              #pragma debug union_end
 149  008D              #pragma debug variable 45 1 ___fc0 "__fc0" 1
 149  008D              #pragma debug struct_end
 149  008D              #pragma debug struct_end
 149  008D              #pragma debug union_end
 149  008D              #pragma debug union_end
 149  008D              #pragma debug variable 47 1 ___farl "__farl" 1
 149  008D              #pragma debug struct_end
 149  008D              #pragma debug struct_end
 149  008D              #pragma debug union_end
 149  008D              #pragma debug union_end
 149  008D              #pragma debug variable 49 1 ___farh "__farh" 1
 149  008D              #pragma debug variable 8 1 ___fd0l "__fd0l" 1
 149  008D              #pragma debug variable 8 1 ___fd0h "__fd0h" 1
 149  008D              #pragma debug variable 8 1 ___fd1l "__fd1l" 1
 149  008D              #pragma debug variable 8 1 ___fd1h "__fd1h" 1
 149  008D              #pragma debug variable 8 1 ___fd2l "__fd2l" 1
 149  008D              #pragma debug variable 8 1 ___fd2h "__fd2h" 1
 149  008D              #pragma debug variable 8 1 ___fd3l "__fd3l" 1
 149  008D              #pragma debug variable 8 1 ___fd3h "__fd3h" 1
 149  008D              
 149  008D              ; 
 149  008D              ; Generated by holtek-gcc v3.19, Thu May 23 14:41:51 2024
 149  008D              ; Rebuild 718
 149  008D              ; end of file


        0 Errors, 0