"File: mcu_api.c     Assembler  Version HGASM0202      Page 1


   1  0000              ; Generated by holtek-gcc v3.19, Thu May 23 14:41:49 2024
   2  0000              ; 
   3  0000              ; Configuration:
   4  0000              ;       with long instruction
   5  0000              ;       Single ROM, Multi-RAM
   6  0000              ;       bits_per_rom_unit:16
   7  0000              ;       with mp1
   8  0000              ;       with tbhp, address(0x9)
   9  0000              ;          Use tabrd-const
  10  0000              ;       
  11  0000              ; SFR address of long-instruction arch:
  12  0000              ;    mp0 = -1,1,0
  13  0000              ;    mp1 = 4,3,2
  14  0000              ;    mp2 = 14,13,12
  15  0000              ;    tbp = 9,7,8
  16  0000              ;    acc = 5
  17  0000              ;    pcl = 6
  18  0000              ;    status = 10
  19  0000              ;    bp = 11
  20  0000              ;    intc = 16
  21  0000              ;       
  22  0000              ;       
  23  0000              ; use 'tabrdc' instead of 'tabrd'
  24  0000              ;       
  25  0000              
  26  0000              #pragma translator "holtek-gcc 4.6.4" "3.19" "build 20130711"
  27  0000              ; Rebuild 718
  28  0000              
  29  0000              ir equ [2]
  30  0000              mp equ [3]
  31  0000              sbp equ [4]
  32  0000              acc equ [5]
  33  0000              bp equ [11]
  34  0000              tblp equ [7]
  35  0000              tbhp equ [9]
  36  0000              status equ [10]
  37  0000              c equ [10].0
  38  0000              ac equ [10].1
  39  0000              z equ [10].2
  40  0000              ov equ [10].3
  41  0000              cz equ [10].6
  42  0000              sc equ [10].7
  43  0000              intc equ [16]
  44  0000              
  45  0000              extern ra:byte
  46  0000              extern rb:byte
  47  0000              extern rc:byte
  48  0000              extern rd:byte
  49  0000              extern re:byte
  50  0000              extern rf:byte
  51  0000              extern rg:byte
  52  0000              extern rh:byte
  53  0000              extern _Crom2Prom:near
  54  0000              extern _Crom2PromNext:near
  55  0000              
  56  0000              RAMBANK 0 @BITDATASEC, @BITDATASEC1
  57  0000              @HCCINIT	.section 'data'
  58  0000              @HCCINIT0	.section 'data'
  59  0000              @BITDATASEC	 .section 'data'
"File: mcu_api.ASM   Assembler  Version HGASM0202      Page 2

  60  0000              @BITDATASEC1	 .section 'data'
  61  0000              
  62  0000              #pragma debug scope 1 1
  63  0000              	extern __DELAY3:near
  64  0000              	extern __DELAYX3:near
  65  0000              	extern __DELAYX6:near
  66  0000              	extern __DELAYY5:near
  67  0000              	extern __DELAYY3:near
  68  0000              	extern _builtin_holtek_delay_2:byte
  69  0000              public _MCU_API_timer_start
  70  0000              #pragma debug scope 2 1

  46  0000              #line 46 "d:\sigfox-ep-example-holtek-bc68f2150-master-tb0\middleware\sigfox\manuf\mcu_api.c"
  46  0000              _MCU_API_timer_start .section 'code'
  46  0000              _MCU_API_timer_start proc
  46  0000              public _MCU_API_timer_start_2
  46  0000  0002[           local _MCU_API_timer_start_2 db 2 dup(?)	; 2,0
            00
            ]
  46  0002              #pragma debug struct_end
  46  0002              #pragma debug struct_end
  46  0002              #pragma debug pointer 43 42 2
  46  0002              #pragma debug pointer 43 42 2
  46  0002              #pragma debug variable 43 2 _MCU_API_timer_start_2+0 "timer"
  52  0002              #line 52 "d:\sigfox-ep-example-holtek-bc68f2150-master-tb0\middleware\sigfox\manuf\mcu_api.c"
  52  0000  0F02        	mov a,2
  52  0001  0300     R  	add a,_MCU_API_timer_start_2[0]
  52  0002  0083        	mov mp,a
  52  0003  0F00        	mov a,0
  52  0004  1300     R  	adc a,_MCU_API_timer_start_2[1]
  52  0005  0084        	mov sbp,a
  52  0006  2000     E  	call _Crom2Prom
  52  0007  0080     E  	mov rd,a
  52  0008  2000     E  	call _Crom2PromNext
  52  0009  0080     E  	mov re,a
  52  000A  2000     E  	call _Crom2PromNext
  52  000B  0080     E  	mov rf,a
  52  000C  2000     E  	call _Crom2PromNext
  52  000D  0080     E  	mov rg,a
  52  000E  1F00     E  	clr rb
  52  000F  1F00     E  	clr rc
  52  0010  2800     R  	jmp _L2
  52  0011              _L3:
  53  0011              #line 53 "d:\sigfox-ep-example-holtek-bc68f2150-master-tb0\middleware\sigfox\manuf\mcu_api.c"
  53  0011              ;# 53 "d:\sigfox-ep-example-holtek-bc68f2150-master-tb0\middleware\sigfox\manuf\mcu_api.c" 1
  53  0011              	IF 4000>263690
  53  0011              ;# 53 "d:\sigfox-ep-example-holtek-bc68f2150-master-tb0\middleware\sigfox\manuf\mcu_api.c" 1
  53  0011              	ERRMESSAGE 'the value 4000of the argument exceeds the maxinum 263690'
  53  0011              	ENDIF
  53  0011              ;# 53 "d:\sigfox-ep-example-holtek-bc68f2150-master-tb0\middleware\sigfox\manuf\mcu_api.c" 1
  53  0011              	IF 4000<0
  53  0011              ;# 53 "d:\sigfox-ep-example-holtek-bc68f2150-master-tb0\middleware\sigfox\manuf\mcu_api.c" 1
  53  0011              	ERRMESSAGE 'the value 4000 of the argument exceeds the mininum 0'
  53  0011              	ENDIF
  53  0011              ;# 53 "d:\sigfox-ep-example-holtek-bc68f2150-master-tb0\middleware\sigfox\manuf\mcu_api.c" 1
  53  0011              	IF 4000==0
  53  0011              ;# 53 "d:\sigfox-ep-example-holtek-bc68f2150-master-tb0\middleware\sigfox\manuf\mcu_api.c" 1
  53  0011              	JMP $
  53  0011              	ENDIF
  53  0011              ;# 53 "d:\sigfox-ep-example-holtek-bc68f2150-master-tb0\middleware\sigfox\manuf\mcu_api.c" 1
"File: mcu_api.c     Assembler  Version HGASM0202      Page 3

  53  0011              	IF 4000==1
  53  0011              ;# 53 "d:\sigfox-ep-example-holtek-bc68f2150-master-tb0\middleware\sigfox\manuf\mcu_api.c" 1
  53  0011              	NOP
  53  0011              	ENDIF
  53  0011              ;# 53 "d:\sigfox-ep-example-holtek-bc68f2150-master-tb0\middleware\sigfox\manuf\mcu_api.c" 1
  53  0011              	IF 4000==2
  53  0011              ;# 53 "d:\sigfox-ep-example-holtek-bc68f2150-master-tb0\middleware\sigfox\manuf\mcu_api.c" 1
  53  0011              	NOP
  53  0011              ;# 53 "d:\sigfox-ep-example-holtek-bc68f2150-master-tb0\middleware\sigfox\manuf\mcu_api.c" 1
  53  0011              	NOP
  53  0011              	ENDIF
  53  0011              ;# 53 "d:\sigfox-ep-example-holtek-bc68f2150-master-tb0\middleware\sigfox\manuf\mcu_api.c" 1
  53  0011              	IF 4000==3
  53  0011              ;# 53 "d:\sigfox-ep-example-holtek-bc68f2150-master-tb0\middleware\sigfox\manuf\mcu_api.c" 1
  53  0011              	NOP
  53  0011              ;# 53 "d:\sigfox-ep-example-holtek-bc68f2150-master-tb0\middleware\sigfox\manuf\mcu_api.c" 1
  53  0011              	NOP
  53  0011              ;# 53 "d:\sigfox-ep-example-holtek-bc68f2150-master-tb0\middleware\sigfox\manuf\mcu_api.c" 1
  53  0011              	NOP
  53  0011              	ENDIF
  53  0011              ;# 53 "d:\sigfox-ep-example-holtek-bc68f2150-master-tb0\middleware\sigfox\manuf\mcu_api.c" 1
  53  0011              	IF (4000<8) AND (4000>3)
  53  0011              ;# 53 "d:\sigfox-ep-example-holtek-bc68f2150-master-tb0\middleware\sigfox\manuf\mcu_api.c" 1
  53  0011              	CALL __DELAY3 + 7 -4000
  53  0011              	ENDIF
  53  0011              ;# 53 "d:\sigfox-ep-example-holtek-bc68f2150-master-tb0\middleware\sigfox\manuf\mcu_api.c" 1
  53  0011              	IF (4000< 0404h) AND (4000>7)
  53  0011              ;# 53 "d:\sigfox-ep-example-holtek-bc68f2150-master-tb0\middleware\sigfox\manuf\mcu_api.c" 1
  53  0011              	MOV A,4000/4-1
  53  0011              ;# 53 "d:\sigfox-ep-example-holtek-bc68f2150-master-tb0\middleware\sigfox\manuf\mcu_api.c" 1
  53  0011              	CALL __DELAYX3 + 3 -(4000 MOD 4)
  53  0011              	ENDIF
  53  0011              ;# 53 "d:\sigfox-ep-example-holtek-bc68f2150-master-tb0\middleware\sigfox\manuf\mcu_api.c" 1
  53  0011              	IF (4000< 0x40B) AND (4000> 0403h)
  53  0011              ;# 53 "d:\sigfox-ep-example-holtek-bc68f2150-master-tb0\middleware\sigfox\manuf\mcu_api.c" 1
  53  0011              	MOV A,0 
  53  0011              ;# 53 "d:\sigfox-ep-example-holtek-bc68f2150-master-tb0\middleware\sigfox\manuf\mcu_api.c" 1
  53  0011              	CALL __DELAYX6 + 0x40a -4000
  53  0011              	ENDIF
  53  0011              ;# 53 "d:\sigfox-ep-example-holtek-bc68f2150-master-tb0\middleware\sigfox\manuf\mcu_api.c" 1
  53  0011              	IF (4000 >= 0x40b) AND ((((4000-9)%0402h)/4+1)>256)
  53  0011              ;# 53 "d:\sigfox-ep-example-holtek-bc68f2150-master-tb0\middleware\sigfox\manuf\mcu_api.c" 1
  53  0011              	MOV A,(4000-9)/0402h
  53  0011              ;# 53 "d:\sigfox-ep-example-holtek-bc68f2150-master-tb0\middleware\sigfox\manuf\mcu_api.c" 1
  53  0011              	MOV _builtin_holtek_delay_2,A
  53  0011              ;# 53 "d:\sigfox-ep-example-holtek-bc68f2150-master-tb0\middleware\sigfox\manuf\mcu_api.c" 1
  53  0011              	MOV A,0
  53  0011              ;# 53 "d:\sigfox-ep-example-holtek-bc68f2150-master-tb0\middleware\sigfox\manuf\mcu_api.c" 1
  53  0011              	CALL __DELAYY5 +5- (((4000-9)%0402h)%6)
  53  0011              	ENDIF
  53  0011              ;# 53 "d:\sigfox-ep-example-holtek-bc68f2150-master-tb0\middleware\sigfox\manuf\mcu_api.c" 1
  53  0011              	IF (4000 >= 0x40b) AND ((((4000-9)%0402h)/4+1)<=256)
  53  0011              ;# 53 "d:\sigfox-ep-example-holtek-bc68f2150-master-tb0\middleware\sigfox\manuf\mcu_api.c" 1
  53  0011  0F03        	MOV A,(4000-9)/0402h
  53  0012              ;# 53 "d:\sigfox-ep-example-holtek-bc68f2150-master-tb0\middleware\sigfox\manuf\mcu_api.c" 1
  53  0012  0080     E  	MOV _builtin_holtek_delay_2,A
  53  0013              ;# 53 "d:\sigfox-ep-example-holtek-bc68f2150-master-tb0\middleware\sigfox\manuf\mcu_api.c" 1
  53  0013  0FE5        	MOV A,((4000-9)%0402h)/4+1
  53  0014              ;# 53 "d:\sigfox-ep-example-holtek-bc68f2150-master-tb0\middleware\sigfox\manuf\mcu_api.c" 1
  53  0014  2000     E  	CALL __DELAYY3 +3-(((4000-9)%0402h)%4)
"File: mcu_api.c     Assembler  Version HGASM0202      Page 4

  53  0015              	ENDIF
  52  0015              #line 52 "d:\sigfox-ep-example-holtek-bc68f2150-master-tb0\middleware\sigfox\manuf\mcu_api.c"
  52  0015  1480     E  	inc rb
  52  0016  3D0A        	sz z
  52  0017  1480     E  	inc rc
  52  0018              _L2:
  52  0018  0700     E  	mov a,rb
  52  0019  0200     E  	sub a,rd
  52  001A  0700     E  	mov a,rc
  52  001B  1200     E  	sbc a,re
  52  001C  1F05        	clr acc
  52  001D  1200     E  	sbc a,rf
  52  001E  1F05        	clr acc
  52  001F  1200     E  	sbc a,rg
  52  0020  380A        	snz c
  52  0021  2800     R  	jmp _L3
  52  0022  0003        	ret
  52  0023              _MCU_API_timer_start endp
  52  0023              #line 52 "d:\sigfox-ep-example-holtek-bc68f2150-master-tb0\middleware\sigfox\manuf\mcu_api.c"
  52  0023              #pragma debug scope 1 1
  52  0023              public _MCU_API_timer_stop
  52  0023              #pragma debug scope 3 1
  61  0023              #line 61 "d:\sigfox-ep-example-holtek-bc68f2150-master-tb0\middleware\sigfox\manuf\mcu_api.c"
  61  0000              _MCU_API_timer_stop .section 'code'
  61  0000              _MCU_API_timer_stop proc
  61  0000  00              local _MCU_API_timer_stop_2 db 1 dup(?)	; 0,1
  61  0001              #pragma debug variable 8 3 _MCU_API_timer_stop_2+0 "timer_instance"
  61  0000  0003        	ret
  61  0001              _MCU_API_timer_stop endp
  61  0001              #line 61 "d:\sigfox-ep-example-holtek-bc68f2150-master-tb0\middleware\sigfox\manuf\mcu_api.c"
  61  0001              #pragma debug scope 1 1
  61  0001              public _MCU_API_timer_status
  61  0001              #pragma debug scope 4 1
  71  0001              #line 71 "d:\sigfox-ep-example-holtek-bc68f2150-master-tb0\middleware\sigfox\manuf\mcu_api.c"
  71  0000              _MCU_API_timer_status .section 'code'
  71  0000              _MCU_API_timer_status proc
  71  0000              public _MCU_API_timer_status_2
  71  0000  0003[           local _MCU_API_timer_status_2 db 3 dup(?)	; 2,1
            00
            ]
  71  0003              #pragma debug variable 8 4 _MCU_API_timer_status_2+2 "timer_instance"
  71  0003              #pragma debug pointer 44 8 4
  71  0003              #pragma debug pointer 44 8 4
  71  0003              #pragma debug variable 44 4 _MCU_API_timer_status_2+0 "timer_has_elapsed"
  71  0000  0003        	ret
  71  0001              _MCU_API_timer_status endp
  71  0001              #line 71 "d:\sigfox-ep-example-holtek-bc68f2150-master-tb0\middleware\sigfox\manuf\mcu_api.c"
  71  0001              #pragma debug scope 1 1
  71  0001              public _MCU_API_timer_wait_cplt
  71  0001              #pragma debug scope 5 1
  81  0001              #line 81 "d:\sigfox-ep-example-holtek-bc68f2150-master-tb0\middleware\sigfox\manuf\mcu_api.c"
  81  0000              _MCU_API_timer_wait_cplt .section 'code'
  81  0000              _MCU_API_timer_wait_cplt proc
  81  0000  00              local _MCU_API_timer_wait_cplt_2 db 1 dup(?)	; 0,1
  81  0001              #pragma debug variable 8 5 _MCU_API_timer_wait_cplt_2+0 "timer_instance"
  81  0000  0003        	ret
  81  0001              _MCU_API_timer_wait_cplt endp
  81  0001              #line 81 "d:\sigfox-ep-example-holtek-bc68f2150-master-tb0\middleware\sigfox\manuf\mcu_api.c"
  81  0001              #pragma debug scope 1 1
  81  0001              public _MCU_API_aes_128_cbc_encrypt
"File: mcu_api.c     Assembler  Version HGASM0202      Page 5

  81  0001              #pragma debug scope 6 1
  90  0001              #line 90 "d:\sigfox-ep-example-holtek-bc68f2150-master-tb0\middleware\sigfox\manuf\mcu_api.c"
  90  0000              _MCU_API_aes_128_cbc_encrypt .section 'code'
  90  0000              _MCU_API_aes_128_cbc_encrypt proc
  90  0000              public _MCU_API_aes_128_cbc_encrypt_2
  90  0000  0002[           local _MCU_API_aes_128_cbc_encrypt_2 db 2 dup(?)	; 2,0
            00
            ]
  90  0002              #pragma debug struct_end
  90  0002              #pragma debug struct_end
  90  0002              #pragma debug pointer 46 45 6
  90  0002              #pragma debug pointer 46 45 6
  90  0002              #pragma debug variable 46 6 _MCU_API_aes_128_cbc_encrypt_2+0 "aes_data"
 102  0002              #line 102 "d:\sigfox-ep-example-holtek-bc68f2150-master-tb0\middleware\sigfox\manuf\mcu_api.c"
 102  0000  0F00     E  	mov a,low (offset _mcu_rf_rodata+4)
 102  0001  0080     E  	mov _aes_encrypt_2[2],a
 102  0002  0F00     E  	mov a,high (offset _mcu_rf_rodata+4)
 102  0003  0080     E  	mov _aes_encrypt_2[3],a
 102  0004  0700     R  	mov a,_MCU_API_aes_128_cbc_encrypt_2[0]
 102  0005  0083        	mov mp,a
 102  0006  0700     R  	mov a,_MCU_API_aes_128_cbc_encrypt_2[1]
 102  0007  0084        	mov sbp,a
 102  0008  2000     E  	call _Crom2Prom
 102  0009  0080     E  	mov _aes_encrypt_2[0],a
 102  000A  2000     E  	call _Crom2PromNext
 102  000B  0080     E  	mov _aes_encrypt_2[1],a
 102  000C  2000     E  	call _aes_encrypt
 102  000D  0003        	ret
 102  000E              _MCU_API_aes_128_cbc_encrypt endp
 102  000E              #line 102 "d:\sigfox-ep-example-holtek-bc68f2150-master-tb0\middleware\sigfox\manuf\mcu_api.c"
 102  000E              #pragma debug scope 1 1
 102  000E              public _MCU_API_get_ep_id
 102  000E              #pragma debug scope 7 1
 108  000E              #line 108 "d:\sigfox-ep-example-holtek-bc68f2150-master-tb0\middleware\sigfox\manuf\mcu_api.c"
 108  0000              _MCU_API_get_ep_id .section 'code'
 108  0000              _MCU_API_get_ep_id proc
 108  0000              public _MCU_API_get_ep_id_2
 108  0000  0003[           local _MCU_API_get_ep_id_2 db 3 dup(?)	; 3,0
            00
            ]
 108  0003              #pragma debug pointer 47 8 7
 108  0003              #pragma debug pointer 47 8 7
 108  0003              #pragma debug variable 47 7 _MCU_API_get_ep_id_2+0 "ep_id"
 108  0003              #pragma debug variable 8 7 _MCU_API_get_ep_id_2+2 "ep_id_size_bytes"
 113  0003              #line 113 "d:\sigfox-ep-example-holtek-bc68f2150-master-tb0\middleware\sigfox\manuf\mcu_api.c"
 113  0000  1900     R  	rra _MCU_API_get_ep_id_2[2]
 113  0001  0E7F        	and a,07fh
 113  0002  0080     E  	mov _IAP_read_2[4],a
 113  0003  0700     R  	mov a,_MCU_API_get_ep_id_2[0]
 113  0004  0080     E  	mov _IAP_read_2[2],a
 113  0005  0700     R  	mov a,_MCU_API_get_ep_id_2[1]
 113  0006  0080     E  	mov _IAP_read_2[3],a
 113  0007  1F00     E  	clr _IAP_read_2[0]
 113  0008  0F1E        	mov a,30
 113  0009  0080     E  	mov _IAP_read_2[1],a
 113  000A  2000     E  	call _IAP_read
 113  000B  0003        	ret
 113  000C              _MCU_API_get_ep_id endp
 113  000C              #line 113 "d:\sigfox-ep-example-holtek-bc68f2150-master-tb0\middleware\sigfox\manuf\mcu_api.c"
 113  000C              #pragma debug scope 1 1
"File: mcu_api.c     Assembler  Version HGASM0202      Page 6

 113  000C              public _MCU_API_get_nvm
 113  000C              #pragma debug scope 8 1
 118  000C              #line 118 "d:\sigfox-ep-example-holtek-bc68f2150-master-tb0\middleware\sigfox\manuf\mcu_api.c"
 118  0000              _MCU_API_get_nvm .section 'code'
 118  0000              _MCU_API_get_nvm proc
 118  0000              public _MCU_API_get_nvm_2
 118  0000  0003[           local _MCU_API_get_nvm_2 db 3 dup(?)	; 3,0
            00
            ]
 118  0003              #pragma debug pointer 48 8 8
 118  0003              #pragma debug pointer 48 8 8
 118  0003              #pragma debug variable 48 8 _MCU_API_get_nvm_2+0 "nvm_data"
 118  0003              #pragma debug variable 8 8 _MCU_API_get_nvm_2+2 "nvm_data_size_bytes"
 122  0003              #line 122 "d:\sigfox-ep-example-holtek-bc68f2150-master-tb0\middleware\sigfox\manuf\mcu_api.c"
 122  0000  1900     R  	rra _MCU_API_get_nvm_2[2]
 122  0001  0E7F        	and a,07fh
 122  0002  0080     E  	mov _IAP_read_2[4],a
 122  0003  0700     R  	mov a,_MCU_API_get_nvm_2[0]
 122  0004  0080     E  	mov _IAP_read_2[2],a
 122  0005  0700     R  	mov a,_MCU_API_get_nvm_2[1]
 122  0006  0080     E  	mov _IAP_read_2[3],a
 122  0007  1F00     E  	clr _IAP_read_2[0]
 122  0008  0F1F        	mov a,31
 122  0009  0080     E  	mov _IAP_read_2[1],a
 122  000A  2000     E  	call _IAP_read
 122  000B  0003        	ret
 122  000C              _MCU_API_get_nvm endp
 122  000C              #line 122 "d:\sigfox-ep-example-holtek-bc68f2150-master-tb0\middleware\sigfox\manuf\mcu_api.c"
 122  000C              #pragma debug scope 1 1
 122  000C              public _MCU_API_set_nvm
 122  000C              #pragma debug scope 9 1
 127  000C              #line 127 "d:\sigfox-ep-example-holtek-bc68f2150-master-tb0\middleware\sigfox\manuf\mcu_api.c"
 127  0000              _MCU_API_set_nvm .section 'code'
 127  0000              _MCU_API_set_nvm proc
 127  0000              public _MCU_API_set_nvm_2
 127  0000  0003[           local _MCU_API_set_nvm_2 db 3 dup(?)	; 3,0
            00
            ]
 127  0003              #pragma debug pointer 49 8 9
 127  0003              #pragma debug pointer 49 8 9
 127  0003              #pragma debug variable 49 9 _MCU_API_set_nvm_2+0 "nvm_data"
 127  0003              #pragma debug variable 8 9 _MCU_API_set_nvm_2+2 "nvm_data_size_bytes"
 131  0003              #line 131 "d:\sigfox-ep-example-holtek-bc68f2150-master-tb0\middleware\sigfox\manuf\mcu_api.c"
 131  0000  0F01        	mov a,1
 131  0001  0080     E  	mov _IAP_write_2[5],a
 131  0002  1900     R  	rra _MCU_API_set_nvm_2[2]
 131  0003  0E7F        	and a,07fh
 131  0004  0080     E  	mov _IAP_write_2[4],a
 131  0005  0700     R  	mov a,_MCU_API_set_nvm_2[0]
 131  0006  0080     E  	mov _IAP_write_2[2],a
 131  0007  0700     R  	mov a,_MCU_API_set_nvm_2[1]
 131  0008  0080     E  	mov _IAP_write_2[3],a
 131  0009  1F00     E  	clr _IAP_write_2[0]
 131  000A  0F1F        	mov a,31
 131  000B  0080     E  	mov _IAP_write_2[1],a
 131  000C  2000     E  	call _IAP_write
 131  000D  0003        	ret
 131  000E              _MCU_API_set_nvm endp
 131  000E              #line 131 "d:\sigfox-ep-example-holtek-bc68f2150-master-tb0\middleware\sigfox\manuf\mcu_api.c"
 131  000E              #pragma debug scope 1 1
"File: mcu_api.c     Assembler  Version HGASM0202      Page 7

 131  000E              
 131  000E              ; output external variables
 131  000E              extern _mcu_rf_rodata:near
 131  000E              extern _aes_encrypt_2:byte
 131  000E              extern _aes_encrypt:near
 131  000E              extern _IAP_read_2:byte
 131  000E              extern _IAP_read:near
 131  000E              extern _IAP_write_2:byte
 131  000E              extern _IAP_write:near
 131  000E              
 131  000E              ; 
 131  000E              ; Generated by holtek-gcc v3.19, Thu May 23 14:41:49 2024
 131  000E              ; Rebuild 718
 131  000E              ; end of file


        0 Errors, 0