"File: rf_api.c      Assembler  Version HGASM0202      Page 1


   1  0000              ; Generated by holtek-gcc v3.19, Thu May 23 14:41:50 2024
   2  0000              ; 
   3  0000              ; Configuration:
   4  0000              ;       with long instruction
   5  0000              ;       Single ROM, Multi-RAM
   6  0000              ;       bits_per_rom_unit:16
   7  0000              ;       with mp1
   8  0000              ;       with tbhp, address(0x9)
   9  0000              ;          Use tabrd-const
  10  0000              ;       
  11  0000              ; SFR address of long-instruction arch:
  12  0000              ;    mp0 = -1,1,0
  13  0000              ;    mp1 = 4,3,2
  14  0000              ;    mp2 = 14,13,12
  15  0000              ;    tbp = 9,7,8
  16  0000              ;    acc = 5
  17  0000              ;    pcl = 6
  18  0000              ;    status = 10
  19  0000              ;    bp = 11
  20  0000              ;    intc = 16
  21  0000              ;       
  22  0000              ;       
  23  0000              ; use 'tabrdc' instead of 'tabrd'
  24  0000              ;       
  25  0000              
  26  0000              #pragma translator "holtek-gcc 4.6.4" "3.19" "build 20130711"
  27  0000              ; Rebuild 718
  28  0000              
  29  0000              ir equ [2]
  30  0000              mp equ [3]
  31  0000              sbp equ [4]
  32  0000              acc equ [5]
  33  0000              bp equ [11]
  34  0000              tblp equ [7]
  35  0000              tbhp equ [9]
  36  0000              status equ [10]
  37  0000              c equ [10].0
  38  0000              ac equ [10].1
  39  0000              z equ [10].2
  40  0000              ov equ [10].3
  41  0000              cz equ [10].6
  42  0000              sc equ [10].7
  43  0000              intc equ [16]
  44  0000              
  45  0000              extern ra:byte
  46  0000              extern rb:byte
  47  0000              extern rc:byte
  48  0000              extern rd:byte
  49  0000              extern re:byte
  50  0000              extern rf:byte
  51  0000              extern rg:byte
  52  0000              extern rh:byte
  53  0000              extern _Crom2Prom:near
  54  0000              extern _Crom2PromNext:near
  55  0000              
  56  0000              RAMBANK 0 @BITDATASEC, @BITDATASEC1
  57  0000              @HCCINIT	.section 'data'
  58  0000              @HCCINIT0	.section 'data'
  59  0000              @BITDATASEC	 .section 'data'
"File: rf_api.ASM    Assembler  Version HGASM0202      Page 2

  60  0000              @BITDATASEC1	 .section 'data'
  61  0000              
  62  0000              #pragma debug scope 1 1
  63  0000              	extern __DELAY3:near
  64  0000              	extern __DELAYX3:near
  65  0000              	extern __DELAYX6:near
  66  0000              	extern __DELAYY5:near
  67  0000              	extern __DELAYY3:near
  68  0000              	extern _builtin_holtek_delay_2:byte
  69  0000              ___rf_pwr equ [39]
  70  0000              ___rf_oper equ [80]
  71  0000              ___rf_opmod equ [96]
  72  0000              ___rf_xo2 equ [115]
  73  0000              ___rf_clk1 equ [81]
  74  0000              ___hxtc equ [30]
  75  0000              ___rf_clk2 equ [82]
  76  0000              ___rf_od1 equ [104]
  77  0000              ___rf_ldo equ [113]
  78  0000              ___rf_dfc_cal equ [112]
  79  0000              ___rf_tx2 equ [111]
  80  0000              public _RF_API_wake_up
  81  0000              #pragma debug scope 2 1

  65  0000              #line 65 "d:\sigfox-ep-example-holtek-bc68f2150-master-tb0\middleware\sigfox\manuf\rf_api.c"
  65  0000              _RF_API_wake_up .section 'code'
  65  0000              _RF_API_wake_up proc
  65  0000              #pragma debug scope 3 2
  65  0000              ;begin block, line: 65.-1
  65  0000              #pragma debug scope 4 3
  65  0000              ;begin block, line: 65.-1
  55  0000              #line 55 "d:\sigfox-ep-example-holtek-bc68f2150-master-tb0\middleware\sigfox\manuf\rf_api.c"
  55  0000  3027        	set [39].0
  56  0001              #line 56 "d:\sigfox-ep-example-holtek-bc68f2150-master-tb0\middleware\sigfox\manuf\rf_api.c"
  56  0001  3250        	set [80].4
  57  0002              #line 57 "d:\sigfox-ep-example-holtek-bc68f2150-master-tb0\middleware\sigfox\manuf\rf_api.c"
  57  0002  3060        	set [96].0
  59  0003              #line 59 "d:\sigfox-ep-example-holtek-bc68f2150-master-tb0\middleware\sigfox\manuf\rf_api.c"
  59  0003              ;# 59 "d:\sigfox-ep-example-holtek-bc68f2150-master-tb0\middleware\sigfox\manuf\rf_api.c" 1
  59  0003              	IF 160>263690
  59  0003              ;# 59 "d:\sigfox-ep-example-holtek-bc68f2150-master-tb0\middleware\sigfox\manuf\rf_api.c" 1
  59  0003              	ERRMESSAGE 'the value 160of the argument exceeds the maxinum 263690'
  59  0003              	ENDIF
  59  0003              ;# 59 "d:\sigfox-ep-example-holtek-bc68f2150-master-tb0\middleware\sigfox\manuf\rf_api.c" 1
  59  0003              	IF 160<0
  59  0003              ;# 59 "d:\sigfox-ep-example-holtek-bc68f2150-master-tb0\middleware\sigfox\manuf\rf_api.c" 1
  59  0003              	ERRMESSAGE 'the value 160 of the argument exceeds the mininum 0'
  59  0003              	ENDIF
  59  0003              ;# 59 "d:\sigfox-ep-example-holtek-bc68f2150-master-tb0\middleware\sigfox\manuf\rf_api.c" 1
  59  0003              	IF 160==0
  59  0003              ;# 59 "d:\sigfox-ep-example-holtek-bc68f2150-master-tb0\middleware\sigfox\manuf\rf_api.c" 1
  59  0003              	JMP $
  59  0003              	ENDIF
  59  0003              ;# 59 "d:\sigfox-ep-example-holtek-bc68f2150-master-tb0\middleware\sigfox\manuf\rf_api.c" 1
  59  0003              	IF 160==1
  59  0003              ;# 59 "d:\sigfox-ep-example-holtek-bc68f2150-master-tb0\middleware\sigfox\manuf\rf_api.c" 1
  59  0003              	NOP
  59  0003              	ENDIF
  59  0003              ;# 59 "d:\sigfox-ep-example-holtek-bc68f2150-master-tb0\middleware\sigfox\manuf\rf_api.c" 1
  59  0003              	IF 160==2
  59  0003              ;# 59 "d:\sigfox-ep-example-holtek-bc68f2150-master-tb0\middleware\sigfox\manuf\rf_api.c" 1
"File: rf_api.c      Assembler  Version HGASM0202      Page 3

  59  0003              	NOP
  59  0003              ;# 59 "d:\sigfox-ep-example-holtek-bc68f2150-master-tb0\middleware\sigfox\manuf\rf_api.c" 1
  59  0003              	NOP
  59  0003              	ENDIF
  59  0003              ;# 59 "d:\sigfox-ep-example-holtek-bc68f2150-master-tb0\middleware\sigfox\manuf\rf_api.c" 1
  59  0003              	IF 160==3
  59  0003              ;# 59 "d:\sigfox-ep-example-holtek-bc68f2150-master-tb0\middleware\sigfox\manuf\rf_api.c" 1
  59  0003              	NOP
  59  0003              ;# 59 "d:\sigfox-ep-example-holtek-bc68f2150-master-tb0\middleware\sigfox\manuf\rf_api.c" 1
  59  0003              	NOP
  59  0003              ;# 59 "d:\sigfox-ep-example-holtek-bc68f2150-master-tb0\middleware\sigfox\manuf\rf_api.c" 1
  59  0003              	NOP
  59  0003              	ENDIF
  59  0003              ;# 59 "d:\sigfox-ep-example-holtek-bc68f2150-master-tb0\middleware\sigfox\manuf\rf_api.c" 1
  59  0003              	IF (160<8) AND (160>3)
  59  0003              ;# 59 "d:\sigfox-ep-example-holtek-bc68f2150-master-tb0\middleware\sigfox\manuf\rf_api.c" 1
  59  0003              	CALL __DELAY3 + 7 -160
  59  0003              	ENDIF
  59  0003              ;# 59 "d:\sigfox-ep-example-holtek-bc68f2150-master-tb0\middleware\sigfox\manuf\rf_api.c" 1
  59  0003              	IF (160< 0404h) AND (160>7)
  59  0003              ;# 59 "d:\sigfox-ep-example-holtek-bc68f2150-master-tb0\middleware\sigfox\manuf\rf_api.c" 1
  59  0003  0F27        	MOV A,160/4-1
  59  0004              ;# 59 "d:\sigfox-ep-example-holtek-bc68f2150-master-tb0\middleware\sigfox\manuf\rf_api.c" 1
  59  0004  2000     E  	CALL __DELAYX3 + 3 -(160 MOD 4)
  59  0005              	ENDIF
  59  0005              ;# 59 "d:\sigfox-ep-example-holtek-bc68f2150-master-tb0\middleware\sigfox\manuf\rf_api.c" 1
  59  0005              	IF (160< 0x40B) AND (160> 0403h)
  59  0005              ;# 59 "d:\sigfox-ep-example-holtek-bc68f2150-master-tb0\middleware\sigfox\manuf\rf_api.c" 1
  59  0005              	MOV A,0 
  59  0005              ;# 59 "d:\sigfox-ep-example-holtek-bc68f2150-master-tb0\middleware\sigfox\manuf\rf_api.c" 1
  59  0005              	CALL __DELAYX6 + 0x40a -160
  59  0005              	ENDIF
  59  0005              ;# 59 "d:\sigfox-ep-example-holtek-bc68f2150-master-tb0\middleware\sigfox\manuf\rf_api.c" 1
  59  0005              	IF (160 >= 0x40b) AND ((((160-9)%0402h)/4+1)>256)
  59  0005              ;# 59 "d:\sigfox-ep-example-holtek-bc68f2150-master-tb0\middleware\sigfox\manuf\rf_api.c" 1
  59  0005              	MOV A,(160-9)/0402h
  59  0005              ;# 59 "d:\sigfox-ep-example-holtek-bc68f2150-master-tb0\middleware\sigfox\manuf\rf_api.c" 1
  59  0005              	MOV _builtin_holtek_delay_2,A
  59  0005              ;# 59 "d:\sigfox-ep-example-holtek-bc68f2150-master-tb0\middleware\sigfox\manuf\rf_api.c" 1
  59  0005              	MOV A,0
  59  0005              ;# 59 "d:\sigfox-ep-example-holtek-bc68f2150-master-tb0\middleware\sigfox\manuf\rf_api.c" 1
  59  0005              	CALL __DELAYY5 +5- (((160-9)%0402h)%6)
  59  0005              	ENDIF
  59  0005              ;# 59 "d:\sigfox-ep-example-holtek-bc68f2150-master-tb0\middleware\sigfox\manuf\rf_api.c" 1
  59  0005              	IF (160 >= 0x40b) AND ((((160-9)%0402h)/4+1)<=256)
  59  0005              ;# 59 "d:\sigfox-ep-example-holtek-bc68f2150-master-tb0\middleware\sigfox\manuf\rf_api.c" 1
  59  0005              	MOV A,(160-9)/0402h
  59  0005              ;# 59 "d:\sigfox-ep-example-holtek-bc68f2150-master-tb0\middleware\sigfox\manuf\rf_api.c" 1
  59  0005              	MOV _builtin_holtek_delay_2,A
  59  0005              ;# 59 "d:\sigfox-ep-example-holtek-bc68f2150-master-tb0\middleware\sigfox\manuf\rf_api.c" 1
  59  0005              	MOV A,((160-9)%0402h)/4+1
  59  0005              ;# 59 "d:\sigfox-ep-example-holtek-bc68f2150-master-tb0\middleware\sigfox\manuf\rf_api.c" 1
  59  0005              	CALL __DELAYY3 +3-(((160-9)%0402h)%4)
  59  0005              	ENDIF
  60  0005              #line 60 "d:\sigfox-ep-example-holtek-bc68f2150-master-tb0\middleware\sigfox\manuf\rf_api.c"
  60  0005  3427        	clr [39].0
  61  0006              #line 61 "d:\sigfox-ep-example-holtek-bc68f2150-master-tb0\middleware\sigfox\manuf\rf_api.c"
  61  0006  3650        	clr [80].4
  62  0007              #line 62 "d:\sigfox-ep-example-holtek-bc68f2150-master-tb0\middleware\sigfox\manuf\rf_api.c"
  62  0007  3460        	clr [96].0
"File: rf_api.c      Assembler  Version HGASM0202      Page 4

  62  0008              #pragma debug scope 3 2
  62  0008              #pragma debug scope 2 1
  71  0008              #line 71 "d:\sigfox-ep-example-holtek-bc68f2150-master-tb0\middleware\sigfox\manuf\rf_api.c"
  71  0008  0F23        	mov a,35
  71  0009  00F3        	mov [115],a
  72  000A              #line 72 "d:\sigfox-ep-example-holtek-bc68f2150-master-tb0\middleware\sigfox\manuf\rf_api.c"
  72  000A  33D1        	set [81].7
  73  000B              #line 73 "d:\sigfox-ep-example-holtek-bc68f2150-master-tb0\middleware\sigfox\manuf\rf_api.c"
  73  000B  3651        	clr [81].4
  75  000C              #line 75 "d:\sigfox-ep-example-holtek-bc68f2150-master-tb0\middleware\sigfox\manuf\rf_api.c"
  75  000C  3027        	set [39].0
  77  000D              #line 77 "d:\sigfox-ep-example-holtek-bc68f2150-master-tb0\middleware\sigfox\manuf\rf_api.c"
  77  000D  381E        	snz [30].0
  77  000E  2800     R  	jmp _L2
  77  000F              _L3:
  78  000F              #line 78 "d:\sigfox-ep-example-holtek-bc68f2150-master-tb0\middleware\sigfox\manuf\rf_api.c"
  78  000F  389E        	snz [30].1
  78  0010  2800     R  	jmp _L3
  78  0011              _L2:
  79  0011              #line 79 "d:\sigfox-ep-example-holtek-bc68f2150-master-tb0\middleware\sigfox\manuf\rf_api.c"
  79  0011  1F52        	clr [82]
  81  0012              #line 81 "d:\sigfox-ep-example-holtek-bc68f2150-master-tb0\middleware\sigfox\manuf\rf_api.c"
  81  0012  1F68        	clr [104]
  82  0013              #line 82 "d:\sigfox-ep-example-holtek-bc68f2150-master-tb0\middleware\sigfox\manuf\rf_api.c"
  82  0013  0F64        	mov a,100
  82  0014  00F1        	mov [113],a
  83  0015              #line 83 "d:\sigfox-ep-example-holtek-bc68f2150-master-tb0\middleware\sigfox\manuf\rf_api.c"
  83  0015  0FC0        	mov a,192
  83  0016  00F0        	mov [112],a
  84  0017              #line 84 "d:\sigfox-ep-example-holtek-bc68f2150-master-tb0\middleware\sigfox\manuf\rf_api.c"
  84  0017  35F3        	clr [115].3
  85  0018              #line 85 "d:\sigfox-ep-example-holtek-bc68f2150-master-tb0\middleware\sigfox\manuf\rf_api.c"
  85  0018  0FC0        	mov a,192
  85  0019  00EF        	mov [111],a
  85  001A  0003        	ret
  85  001B              _RF_API_wake_up endp
  85  001B              #line 85 "d:\sigfox-ep-example-holtek-bc68f2150-master-tb0\middleware\sigfox\manuf\rf_api.c"
  85  001B              #pragma debug scope 1 1
  85  001B              public _RF_API_sleep
  85  001B              #pragma debug scope 5 1
  91  001B              #line 91 "d:\sigfox-ep-example-holtek-bc68f2150-master-tb0\middleware\sigfox\manuf\rf_api.c"
  91  0000              _RF_API_sleep .section 'code'
  91  0000              _RF_API_sleep proc
  96  0000              #line 96 "d:\sigfox-ep-example-holtek-bc68f2150-master-tb0\middleware\sigfox\manuf\rf_api.c"
  96  0000              ;# 96 "d:\sigfox-ep-example-holtek-bc68f2150-master-tb0\middleware\sigfox\manuf\rf_api.c" 1
  96  0000              	IF 160>263690
  96  0000              ;# 96 "d:\sigfox-ep-example-holtek-bc68f2150-master-tb0\middleware\sigfox\manuf\rf_api.c" 1
  96  0000              	ERRMESSAGE 'the value 160of the argument exceeds the maxinum 263690'
  96  0000              	ENDIF
  96  0000              ;# 96 "d:\sigfox-ep-example-holtek-bc68f2150-master-tb0\middleware\sigfox\manuf\rf_api.c" 1
  96  0000              	IF 160<0
  96  0000              ;# 96 "d:\sigfox-ep-example-holtek-bc68f2150-master-tb0\middleware\sigfox\manuf\rf_api.c" 1
  96  0000              	ERRMESSAGE 'the value 160 of the argument exceeds the mininum 0'
  96  0000              	ENDIF
  96  0000              ;# 96 "d:\sigfox-ep-example-holtek-bc68f2150-master-tb0\middleware\sigfox\manuf\rf_api.c" 1
  96  0000              	IF 160==0
  96  0000              ;# 96 "d:\sigfox-ep-example-holtek-bc68f2150-master-tb0\middleware\sigfox\manuf\rf_api.c" 1
  96  0000              	JMP $
  96  0000              	ENDIF
  96  0000              ;# 96 "d:\sigfox-ep-example-holtek-bc68f2150-master-tb0\middleware\sigfox\manuf\rf_api.c" 1
"File: rf_api.c      Assembler  Version HGASM0202      Page 5

  96  0000              	IF 160==1
  96  0000              ;# 96 "d:\sigfox-ep-example-holtek-bc68f2150-master-tb0\middleware\sigfox\manuf\rf_api.c" 1
  96  0000              	NOP
  96  0000              	ENDIF
  96  0000              ;# 96 "d:\sigfox-ep-example-holtek-bc68f2150-master-tb0\middleware\sigfox\manuf\rf_api.c" 1
  96  0000              	IF 160==2
  96  0000              ;# 96 "d:\sigfox-ep-example-holtek-bc68f2150-master-tb0\middleware\sigfox\manuf\rf_api.c" 1
  96  0000              	NOP
  96  0000              ;# 96 "d:\sigfox-ep-example-holtek-bc68f2150-master-tb0\middleware\sigfox\manuf\rf_api.c" 1
  96  0000              	NOP
  96  0000              	ENDIF
  96  0000              ;# 96 "d:\sigfox-ep-example-holtek-bc68f2150-master-tb0\middleware\sigfox\manuf\rf_api.c" 1
  96  0000              	IF 160==3
  96  0000              ;# 96 "d:\sigfox-ep-example-holtek-bc68f2150-master-tb0\middleware\sigfox\manuf\rf_api.c" 1
  96  0000              	NOP
  96  0000              ;# 96 "d:\sigfox-ep-example-holtek-bc68f2150-master-tb0\middleware\sigfox\manuf\rf_api.c" 1
  96  0000              	NOP
  96  0000              ;# 96 "d:\sigfox-ep-example-holtek-bc68f2150-master-tb0\middleware\sigfox\manuf\rf_api.c" 1
  96  0000              	NOP
  96  0000              	ENDIF
  96  0000              ;# 96 "d:\sigfox-ep-example-holtek-bc68f2150-master-tb0\middleware\sigfox\manuf\rf_api.c" 1
  96  0000              	IF (160<8) AND (160>3)
  96  0000              ;# 96 "d:\sigfox-ep-example-holtek-bc68f2150-master-tb0\middleware\sigfox\manuf\rf_api.c" 1
  96  0000              	CALL __DELAY3 + 7 -160
  96  0000              	ENDIF
  96  0000              ;# 96 "d:\sigfox-ep-example-holtek-bc68f2150-master-tb0\middleware\sigfox\manuf\rf_api.c" 1
  96  0000              	IF (160< 0404h) AND (160>7)
  96  0000              ;# 96 "d:\sigfox-ep-example-holtek-bc68f2150-master-tb0\middleware\sigfox\manuf\rf_api.c" 1
  96  0000  0F27        	MOV A,160/4-1
  96  0001              ;# 96 "d:\sigfox-ep-example-holtek-bc68f2150-master-tb0\middleware\sigfox\manuf\rf_api.c" 1
  96  0001  2000     E  	CALL __DELAYX3 + 3 -(160 MOD 4)
  96  0002              	ENDIF
  96  0002              ;# 96 "d:\sigfox-ep-example-holtek-bc68f2150-master-tb0\middleware\sigfox\manuf\rf_api.c" 1
  96  0002              	IF (160< 0x40B) AND (160> 0403h)
  96  0002              ;# 96 "d:\sigfox-ep-example-holtek-bc68f2150-master-tb0\middleware\sigfox\manuf\rf_api.c" 1
  96  0002              	MOV A,0 
  96  0002              ;# 96 "d:\sigfox-ep-example-holtek-bc68f2150-master-tb0\middleware\sigfox\manuf\rf_api.c" 1
  96  0002              	CALL __DELAYX6 + 0x40a -160
  96  0002              	ENDIF
  96  0002              ;# 96 "d:\sigfox-ep-example-holtek-bc68f2150-master-tb0\middleware\sigfox\manuf\rf_api.c" 1
  96  0002              	IF (160 >= 0x40b) AND ((((160-9)%0402h)/4+1)>256)
  96  0002              ;# 96 "d:\sigfox-ep-example-holtek-bc68f2150-master-tb0\middleware\sigfox\manuf\rf_api.c" 1
  96  0002              	MOV A,(160-9)/0402h
  96  0002              ;# 96 "d:\sigfox-ep-example-holtek-bc68f2150-master-tb0\middleware\sigfox\manuf\rf_api.c" 1
  96  0002              	MOV _builtin_holtek_delay_2,A
  96  0002              ;# 96 "d:\sigfox-ep-example-holtek-bc68f2150-master-tb0\middleware\sigfox\manuf\rf_api.c" 1
  96  0002              	MOV A,0
  96  0002              ;# 96 "d:\sigfox-ep-example-holtek-bc68f2150-master-tb0\middleware\sigfox\manuf\rf_api.c" 1
  96  0002              	CALL __DELAYY5 +5- (((160-9)%0402h)%6)
  96  0002              	ENDIF
  96  0002              ;# 96 "d:\sigfox-ep-example-holtek-bc68f2150-master-tb0\middleware\sigfox\manuf\rf_api.c" 1
  96  0002              	IF (160 >= 0x40b) AND ((((160-9)%0402h)/4+1)<=256)
  96  0002              ;# 96 "d:\sigfox-ep-example-holtek-bc68f2150-master-tb0\middleware\sigfox\manuf\rf_api.c" 1
  96  0002              	MOV A,(160-9)/0402h
  96  0002              ;# 96 "d:\sigfox-ep-example-holtek-bc68f2150-master-tb0\middleware\sigfox\manuf\rf_api.c" 1
  96  0002              	MOV _builtin_holtek_delay_2,A
  96  0002              ;# 96 "d:\sigfox-ep-example-holtek-bc68f2150-master-tb0\middleware\sigfox\manuf\rf_api.c" 1
  96  0002              	MOV A,((160-9)%0402h)/4+1
  96  0002              ;# 96 "d:\sigfox-ep-example-holtek-bc68f2150-master-tb0\middleware\sigfox\manuf\rf_api.c" 1
  96  0002              	CALL __DELAYY3 +3-(((160-9)%0402h)%4)
"File: rf_api.c      Assembler  Version HGASM0202      Page 6

  96  0002              	ENDIF
  97  0002              #line 97 "d:\sigfox-ep-example-holtek-bc68f2150-master-tb0\middleware\sigfox\manuf\rf_api.c"
  97  0002  37D1        	clr [81].7
  98  0003              #line 98 "d:\sigfox-ep-example-holtek-bc68f2150-master-tb0\middleware\sigfox\manuf\rf_api.c"
  98  0003  3427        	clr [39].0
  98  0004  0003        	ret
  98  0005              _RF_API_sleep endp
  98  0005              #line 98 "d:\sigfox-ep-example-holtek-bc68f2150-master-tb0\middleware\sigfox\manuf\rf_api.c"
  98  0005              #pragma debug scope 1 1
  98  0005              ___ctmc0 equ [58]
  98  0005              ___ctmc1 equ [59]
  98  0005              ___ctmal equ [62]
  98  0005              ___ctmah equ [63]
  98  0005              ___rf_sx1 equ [97]
  98  0005              ___rf_sx2 equ [98]
  98  0005              ___rf_sx3 equ [99]
  98  0005              ___rf_sx4 equ [100]
  98  0005              ___rf_fifo_ctrl4 equ [86]
  98  0005              public _RF_API_init
  98  0005              #pragma debug scope 6 1
 104  0005              #line 104 "d:\sigfox-ep-example-holtek-bc68f2150-master-tb0\middleware\sigfox\manuf\rf_api.c"
 104  0000              _RF_API_init .section 'code'
 104  0000              _RF_API_init proc
 104  0000              public _RF_API_init_2
 104  0000  0006[           local _RF_API_init_2 db 6 dup(?)	; 2,4
            00
            ]
 104  0006              #pragma debug struct_end
 104  0006              #pragma debug struct_end
 104  0006              #pragma debug pointer 43 42 6
 104  0006              #pragma debug pointer 43 42 6
 104  0006              #pragma debug variable 43 6 _RF_API_init_2+0 "radio_parameters"
 111  0006              #line 111 "d:\sigfox-ep-example-holtek-bc68f2150-master-tb0\middleware\sigfox\manuf\rf_api.c"
 111  0000  0700     R  	mov a,_RF_API_init_2[0]
 111  0001  0080     E  	mov rb,a
 111  0002  0700     R  	mov a,_RF_API_init_2[1]
 111  0003  0080     E  	mov rc,a
 111  0004  0F06        	mov a,6
 111  0005  0300     E  	add a,rb
 111  0006  0083        	mov mp,a
 111  0007  0F00        	mov a,0
 111  0008  1300     E  	adc a,rc
 111  0009  0084        	mov sbp,a
 111  000A  2000     E  	call _Crom2Prom
 111  000B  0080     E  	mov rd,a
 111  000C  2000     E  	call _Crom2PromNext
 111  000D  0080     E  	mov re,a
 111  000E  0700     E  	mov a,rd
 111  000F  0C64        	xor a,100
 111  0010  0500     E  	or a,re
 111  0011  390A        	snz z
 111  0012  2800     R  	jmp _L10
 113  0013              #line 113 "d:\sigfox-ep-example-holtek-bc68f2150-master-tb0\middleware\sigfox\manuf\rf_api.c"
 113  0013  0F28        	mov a,40
 113  0014  00BA        	mov [58],a
 114  0015              #line 114 "d:\sigfox-ep-example-holtek-bc68f2150-master-tb0\middleware\sigfox\manuf\rf_api.c"
 114  0015  0FC1        	mov a,193
 114  0016  00BB        	mov [59],a
 115  0017              #line 115 "d:\sigfox-ep-example-holtek-bc68f2150-master-tb0\middleware\sigfox\manuf\rf_api.c"
 115  0017  0F31        	mov a,49
"File: rf_api.c      Assembler  Version HGASM0202      Page 7

 115  0018  00BE        	mov [62],a
 116  0019              #line 116 "d:\sigfox-ep-example-holtek-bc68f2150-master-tb0\middleware\sigfox\manuf\rf_api.c"
 116  0019  1F3F        	clr [63]
 117  001A              #line 117 "d:\sigfox-ep-example-holtek-bc68f2150-master-tb0\middleware\sigfox\manuf\rf_api.c"
 117  001A  35BA        	clr [58].3
 118  001B              #line 118 "d:\sigfox-ep-example-holtek-bc68f2150-master-tb0\middleware\sigfox\manuf\rf_api.c"
 118  001B  0F08        	mov a,8
 118  001C  0300     E  	add a,rb
 118  001D  0083        	mov mp,a
 118  001E  0F00        	mov a,0
 118  001F  1300     E  	adc a,rc
 118  0020  0084        	mov sbp,a
 118  0021  2000     E  	call _Crom2Prom
 118  0022  0080     E  	mov ra,a
 118  0023  0700     E  	mov a,ra
 118  0024  0BF4        	add a,244
 118  0025  0080     E  	mov rd,a
 118  0026  0F01        	mov a,1
 118  0027  0200     E  	sub a,rd
 118  0028  380A        	snz c
 118  0029  2800     R  	jmp _L11
 119  002A              #line 119 "d:\sigfox-ep-example-holtek-bc68f2150-master-tb0\middleware\sigfox\manuf\rf_api.c"
 119  002A  0F00     E  	mov a,low (offset _mcu_rf_rodata+131)
 119  002B  0080     R  	mov _const_table_ptr[0],a
 119  002C  0F00     E  	mov a,high (offset _mcu_rf_rodata+131)
 119  002D  0080     R  	mov _const_table_ptr[1],a
 119  002E  2800     R  	jmp _L12
 119  002F              _L11:
 120  002F              #line 120 "d:\sigfox-ep-example-holtek-bc68f2150-master-tb0\middleware\sigfox\manuf\rf_api.c"
 120  002F  0F0D        	mov a,13
 120  0030  0200     E  	sub a,ra
 120  0031  3B8A        	snz sc
 120  0032  2800     R  	jmp _L12
 121  0033              #line 121 "d:\sigfox-ep-example-holtek-bc68f2150-master-tb0\middleware\sigfox\manuf\rf_api.c"
 121  0033  0F00     E  	mov a,low (offset _mcu_rf_rodata+28)
 121  0034  0080     R  	mov _const_table_ptr[0],a
 121  0035  0F00     E  	mov a,high (offset _mcu_rf_rodata+28)
 121  0036  0080     R  	mov _const_table_ptr[1],a
 121  0037  2800     R  	jmp _L12
 121  0038              _L10:
 123  0038              #line 123 "d:\sigfox-ep-example-holtek-bc68f2150-master-tb0\middleware\sigfox\manuf\rf_api.c"
 123  0038  0F18        	mov a,24
 123  0039  00BA        	mov [58],a
 124  003A              #line 124 "d:\sigfox-ep-example-holtek-bc68f2150-master-tb0\middleware\sigfox\manuf\rf_api.c"
 124  003A  0FC1        	mov a,193
 124  003B  00BB        	mov [59],a
 125  003C              #line 125 "d:\sigfox-ep-example-holtek-bc68f2150-master-tb0\middleware\sigfox\manuf\rf_api.c"
 125  003C  0F5D        	mov a,93
 125  003D  00BE        	mov [62],a
 126  003E              #line 126 "d:\sigfox-ep-example-holtek-bc68f2150-master-tb0\middleware\sigfox\manuf\rf_api.c"
 126  003E  0F02        	mov a,2
 126  003F  00BF        	mov [63],a
 127  0040              #line 127 "d:\sigfox-ep-example-holtek-bc68f2150-master-tb0\middleware\sigfox\manuf\rf_api.c"
 127  0040  35BA        	clr [58].3
 128  0041              #line 128 "d:\sigfox-ep-example-holtek-bc68f2150-master-tb0\middleware\sigfox\manuf\rf_api.c"
 128  0041  0F00     E  	mov a,low (offset _mcu_rf_rodata+337)
 128  0042  0080     R  	mov _const_table_ptr[0],a
 128  0043  0F00     E  	mov a,high (offset _mcu_rf_rodata+337)
 128  0044  0080     R  	mov _const_table_ptr[1],a
 128  0045              _L12:
"File: rf_api.c      Assembler  Version HGASM0202      Page 8

 131  0045              #line 131 "d:\sigfox-ep-example-holtek-bc68f2150-master-tb0\middleware\sigfox\manuf\rf_api.c"
 131  0045  0F01        	mov a,1
 131  0046  0300     E  	add a,rb
 131  0047  0083        	mov mp,a
 131  0048  0F00        	mov a,0
 131  0049  1300     E  	adc a,rc
 131  004A  0084        	mov sbp,a
 131  004B  2000     E  	call _Crom2Prom
 131  004C  0080     E  	mov rd,a
 131  004D  2000     E  	call _Crom2PromNext
 131  004E  0080     E  	mov re,a
 131  004F  2000     E  	call _Crom2PromNext
 131  0050  0080     E  	mov rf,a
 131  0051  2000     E  	call _Crom2PromNext
 131  0052  0080     E  	mov rg,a
 131  0053  1F00     E  	clr _builtin_holtek_udivmodsi4_2[12]
 131  0054  0700     E  	mov a,rd  
 131  0055  0080     E  	mov _builtin_holtek_udivmodsi4_2[0],a  
 131  0056  0700     E  	mov a,re  
 131  0057  0080     E  	mov _builtin_holtek_udivmodsi4_2[1],a
 131  0058  0700     E  	mov a,rf  
 131  0059  0080     E  	mov _builtin_holtek_udivmodsi4_2[2],a  
 131  005A  0700     E  	mov a,rg  
 131  005B  0080     E  	mov _builtin_holtek_udivmodsi4_2[3],a
 131  005C  0F00        	mov a,0  
 131  005D  0080     E  	mov _builtin_holtek_udivmodsi4_2[4],a  
 131  005E  0F24        	mov a,36  
 131  005F  0080     E  	mov _builtin_holtek_udivmodsi4_2[5],a
 131  0060  0FF4        	mov a,244  
 131  0061  0080     E  	mov _builtin_holtek_udivmodsi4_2[6],a  
 131  0062  0F00        	mov a,0  
 131  0063  0080     E  	mov _builtin_holtek_udivmodsi4_2[7],a
 131  0064  2000     E  	call _builtin_holtek_udivmodsi4
 131  0065  0700     E  	mov a,_builtin_holtek_udivmodsi4_2[0]  
 131  0066  0080     R  	mov _RF_API_init_2[2],a  
 131  0067  0700     E  	mov a,_builtin_holtek_udivmodsi4_2[1]  
 131  0068  0080     R  	mov _RF_API_init_2[3],a
 131  0069  0700     E  	mov a,_builtin_holtek_udivmodsi4_2[2]  
 131  006A  0080     R  	mov _RF_API_init_2[4],a  
 131  006B  0700     E  	mov a,_builtin_holtek_udivmodsi4_2[3]  
 131  006C  0080     R  	mov _RF_API_init_2[5],a
 131  006D  0700     R  	mov a,_RF_API_init_2[2]
 131  006E  00E1        	mov [97],a
 133  006F              #line 133 "d:\sigfox-ep-example-holtek-bc68f2150-master-tb0\middleware\sigfox\manuf\rf_api.c"
 133  006F  0700     E  	mov a,rg
 133  0070  0080     E  	mov _builtin_holtek_mant12p[0],a
 133  0071  0700     E  	mov a,rf
 133  0072  0080     E  	mov _builtin_holtek_mant1[2],a
 133  0073  0700     E  	mov a,re
 133  0074  0080     E  	mov _builtin_holtek_mant1[1],a
 133  0075  0700     E  	mov a,rd
 133  0076  0080     E  	mov _builtin_holtek_mant1[0],a
 133  0077  3400     E  	clr _builtin_holtek_signs.0
 133  0078  2000     E  	call _builtin_holtek_ultod
 133  0079  0700     E  	mov a,_builtin_holtek_mant12p[0]
 133  007A  0080     E  	mov rg,a
 133  007B  0700     E  	mov a,_builtin_holtek_mant1[2]
 133  007C  0080     E  	mov rf,a
 133  007D  0700     E  	mov a,_builtin_holtek_mant1[1]
 133  007E  0080     E  	mov re,a
"File: rf_api.c      Assembler  Version HGASM0202      Page 9

 133  007F  0700     E  	mov a,_builtin_holtek_mant1[0]
 133  0080  0080     E  	mov rd,a
 133  0081  0700     E  	mov a,rg
 133  0082  0080     E  	mov _builtin_holtek_mant12p[0],a
 133  0083  0700     E  	mov a,rf
 133  0084  0080     E  	mov _builtin_holtek_mant1[2],a
 133  0085  0700     E  	mov a,re
 133  0086  0080     E  	mov _builtin_holtek_mant1[1],a
 133  0087  0700     E  	mov a,rd
 133  0088  0080     E  	mov _builtin_holtek_mant1[0],a
 133  0089  0F4B        	mov a,75
 133  008A  0080     E  	mov _builtin_holtek_mant12p[1],a
 133  008B  0F74        	mov a,116
 133  008C  0080     E  	mov _builtin_holtek_mant2[2],a
 133  008D  0F24        	mov a,36
 133  008E  0080     E  	mov _builtin_holtek_mant2[1],a
 133  008F  0F00        	mov a,0
 133  0090  0080     E  	mov _builtin_holtek_mant2[0],a
 133  0091  2000     E  	call _builtin_holtek_dtdiv
 133  0092  0700     E  	mov a,_builtin_holtek_mant12p[0]
 133  0093  0080     E  	mov rg,a
 133  0094  0700     E  	mov a,_builtin_holtek_mant1[2]
 133  0095  0080     E  	mov rf,a
 133  0096  0700     E  	mov a,_builtin_holtek_mant1[1]
 133  0097  0080     E  	mov re,a
 133  0098  0700     E  	mov a,_builtin_holtek_mant1[0]
 133  0099  0080     E  	mov rd,a
 133  009A  0761        	mov a,[97]
 133  009B  0080     E  	mov rb,a
 133  009C  1F00     E  	clr rc
 133  009D  0700     E  	mov a,rc
 133  009E  0080     E  	mov _builtin_holtek_mant1[1],a
 133  009F  0700     E  	mov a,rb
 133  00A0  0080     E  	mov _builtin_holtek_mant1[0],a
 133  00A1  2000     E  	call _builtin_holtek_itod
 133  00A2  0700     E  	mov a,_builtin_holtek_mant12p[0]
 133  00A3  0080     R  	mov _RF_API_init_2[5],a
 133  00A4  0700     E  	mov a,_builtin_holtek_mant1[2]
 133  00A5  0080     R  	mov _RF_API_init_2[4],a
 133  00A6  0700     E  	mov a,_builtin_holtek_mant1[1]
 133  00A7  0080     R  	mov _RF_API_init_2[3],a
 133  00A8  0700     E  	mov a,_builtin_holtek_mant1[0]
 133  00A9  0080     R  	mov _RF_API_init_2[2],a
 133  00AA  0700     E  	mov a,rg
 133  00AB  0080     E  	mov _builtin_holtek_mant12p[0],a
 133  00AC  0700     E  	mov a,rf
 133  00AD  0080     E  	mov _builtin_holtek_mant1[2],a
 133  00AE  0700     E  	mov a,re
 133  00AF  0080     E  	mov _builtin_holtek_mant1[1],a
 133  00B0  0700     E  	mov a,rd
 133  00B1  0080     E  	mov _builtin_holtek_mant1[0],a
 133  00B2  0700     R  	mov a,_RF_API_init_2[5]
 133  00B3  0080     E  	mov _builtin_holtek_mant12p[1],a
 133  00B4  0700     R  	mov a,_RF_API_init_2[4]
 133  00B5  0080     E  	mov _builtin_holtek_mant2[2],a
 133  00B6  0700     R  	mov a,_RF_API_init_2[3]
 133  00B7  0080     E  	mov _builtin_holtek_mant2[1],a
 133  00B8  0700     R  	mov a,_RF_API_init_2[2]
 133  00B9  0080     E  	mov _builtin_holtek_mant2[0],a
 133  00BA  2000     E  	call _builtin_holtek_dtsub
"File: rf_api.c      Assembler  Version HGASM0202      Page 10

 133  00BB  0700     E  	mov a,_builtin_holtek_mant12p[0]
 133  00BC  0080     E  	mov rg,a
 133  00BD  0700     E  	mov a,_builtin_holtek_mant1[2]
 133  00BE  0080     E  	mov rf,a
 133  00BF  0700     E  	mov a,_builtin_holtek_mant1[1]
 133  00C0  0080     E  	mov re,a
 133  00C1  0700     E  	mov a,_builtin_holtek_mant1[0]
 133  00C2  0080     E  	mov rd,a
 133  00C3  0700     E  	mov a,rg
 133  00C4  0080     E  	mov _builtin_holtek_mant12p[0],a
 133  00C5  0700     E  	mov a,rf
 133  00C6  0080     E  	mov _builtin_holtek_mant1[2],a
 133  00C7  0700     E  	mov a,re
 133  00C8  0080     E  	mov _builtin_holtek_mant1[1],a
 133  00C9  0700     E  	mov a,rd
 133  00CA  0080     E  	mov _builtin_holtek_mant1[0],a
 133  00CB  0F49        	mov a,73
 133  00CC  0080     E  	mov _builtin_holtek_mant12p[1],a
 133  00CD  0F80        	mov a,128
 133  00CE  0080     E  	mov _builtin_holtek_mant2[2],a
 133  00CF  0F00        	mov a,0
 133  00D0  0080     E  	mov _builtin_holtek_mant2[1],a
 133  00D1  0F00        	mov a,0
 133  00D2  0080     E  	mov _builtin_holtek_mant2[0],a
 133  00D3  2000     E  	call _builtin_holtek_dtmul
 133  00D4  0700     E  	mov a,_builtin_holtek_mant12p[0]
 133  00D5  0080     E  	mov rg,a
 133  00D6  0700     E  	mov a,_builtin_holtek_mant1[2]
 133  00D7  0080     E  	mov rf,a
 133  00D8  0700     E  	mov a,_builtin_holtek_mant1[1]
 133  00D9  0080     E  	mov re,a
 133  00DA  0700     E  	mov a,_builtin_holtek_mant1[0]
 133  00DB  0080     E  	mov rd,a
 133  00DC  0700     E  	mov a,rg
 133  00DD  0080     E  	mov _builtin_holtek_mant12p[0],a
 133  00DE  0700     E  	mov a,rf
 133  00DF  0080     E  	mov _builtin_holtek_mant1[2],a
 133  00E0  0700     E  	mov a,re
 133  00E1  0080     E  	mov _builtin_holtek_mant1[1],a
 133  00E2  0700     E  	mov a,rd
 133  00E3  0080     E  	mov _builtin_holtek_mant1[0],a
 133  00E4  0F4F        	mov a,79
 133  00E5  0080     E  	mov _builtin_holtek_mant12p[1],a
 133  00E6  0F00        	mov a,0
 133  00E7  0080     E  	mov _builtin_holtek_mant2[2],a
 133  00E8  0F00        	mov a,0
 133  00E9  0080     E  	mov _builtin_holtek_mant2[1],a
 133  00EA  0F00        	mov a,0
 133  00EB  0080     E  	mov _builtin_holtek_mant2[0],a
 133  00EC  2000     E  	call _builtin_holtek_dtsub
 133  00ED  3800     E  	snz _builtin_holtek_mant12p[0].7
 133  00EE  2800     R  	jmp _L13
 133  00EF  0700     E  	mov a,rg
 133  00F0  0080     E  	mov _builtin_holtek_mant12p[0],a
 133  00F1  0700     E  	mov a,rf
 133  00F2  0080     E  	mov _builtin_holtek_mant1[2],a
 133  00F3  0700     E  	mov a,re
 133  00F4  0080     E  	mov _builtin_holtek_mant1[1],a
 133  00F5  0700     E  	mov a,rd
 133  00F6  0080     E  	mov _builtin_holtek_mant1[0],a
"File: rf_api.c      Assembler  Version HGASM0202      Page 11

 133  00F7  2000     E  	call _builtin_holtek_dtol
 133  00F8  0700     E  	mov a,_builtin_holtek_mant12p[0]
 133  00F9  0080     E  	mov rg,a
 133  00FA  0700     E  	mov a,_builtin_holtek_mant1[2]
 133  00FB  0080     E  	mov rf,a
 133  00FC  0700     E  	mov a,_builtin_holtek_mant1[1]
 133  00FD  0080     E  	mov re,a
 133  00FE  0700     E  	mov a,_builtin_holtek_mant1[0]
 133  00FF  0080     E  	mov rd,a
 133  0100  2800     R  	jmp _L14
 133  0101              _L13:
 133  0101  0700     E  	mov a,rg
 133  0102  0080     E  	mov _builtin_holtek_mant12p[0],a
 133  0103  0700     E  	mov a,rf
 133  0104  0080     E  	mov _builtin_holtek_mant1[2],a
 133  0105  0700     E  	mov a,re
 133  0106  0080     E  	mov _builtin_holtek_mant1[1],a
 133  0107  0700     E  	mov a,rd
 133  0108  0080     E  	mov _builtin_holtek_mant1[0],a
 133  0109  0F4F        	mov a,79
 133  010A  0080     E  	mov _builtin_holtek_mant12p[1],a
 133  010B  0F00        	mov a,0
 133  010C  0080     E  	mov _builtin_holtek_mant2[2],a
 133  010D  0F00        	mov a,0
 133  010E  0080     E  	mov _builtin_holtek_mant2[1],a
 133  010F  0F00        	mov a,0
 133  0110  0080     E  	mov _builtin_holtek_mant2[0],a
 133  0111  2000     E  	call _builtin_holtek_dtsub
 133  0112  0700     E  	mov a,_builtin_holtek_mant12p[0]
 133  0113  0080     E  	mov rg,a
 133  0114  0700     E  	mov a,_builtin_holtek_mant1[2]
 133  0115  0080     E  	mov rf,a
 133  0116  0700     E  	mov a,_builtin_holtek_mant1[1]
 133  0117  0080     E  	mov re,a
 133  0118  0700     E  	mov a,_builtin_holtek_mant1[0]
 133  0119  0080     E  	mov rd,a
 133  011A  0700     E  	mov a,rg
 133  011B  0080     E  	mov _builtin_holtek_mant12p[0],a
 133  011C  0700     E  	mov a,rf
 133  011D  0080     E  	mov _builtin_holtek_mant1[2],a
 133  011E  0700     E  	mov a,re
 133  011F  0080     E  	mov _builtin_holtek_mant1[1],a
 133  0120  0700     E  	mov a,rd
 133  0121  0080     E  	mov _builtin_holtek_mant1[0],a
 133  0122  2000     E  	call _builtin_holtek_dtol
 133  0123  0700     E  	mov a,_builtin_holtek_mant12p[0]
 133  0124  0080     E  	mov rg,a
 133  0125  0700     E  	mov a,_builtin_holtek_mant1[2]
 133  0126  0080     E  	mov rf,a
 133  0127  0700     E  	mov a,_builtin_holtek_mant1[1]
 133  0128  0080     E  	mov re,a
 133  0129  0700     E  	mov a,_builtin_holtek_mant1[0]
 133  012A  0080     E  	mov rd,a
 133  012B  0F00        	mov a,0
 133  012C  0380     E  	addm a,rd
 133  012D  1380     E  	adcm a,re
 133  012E  1380     E  	adcm a,rf
 133  012F  0F80        	mov a,128
 133  0130  1380     E  	adcm a,rg
 133  0131              _L14:
"File: rf_api.c      Assembler  Version HGASM0202      Page 12

 134  0131              #line 134 "d:\sigfox-ep-example-holtek-bc68f2150-master-tb0\middleware\sigfox\manuf\rf_api.c"
 134  0131  0700     E  	mov a,rd
 134  0132  00E2        	mov [98],a
 135  0133              #line 135 "d:\sigfox-ep-example-holtek-bc68f2150-master-tb0\middleware\sigfox\manuf\rf_api.c"
 135  0133  0700     E  	mov a,re
 135  0134  00E3        	mov [99],a
 136  0135              #line 136 "d:\sigfox-ep-example-holtek-bc68f2150-master-tb0\middleware\sigfox\manuf\rf_api.c"
 136  0135  0700     E  	mov a,rf
 136  0136  00E4        	mov [100],a
 138  0137              #line 138 "d:\sigfox-ep-example-holtek-bc68f2150-master-tb0\middleware\sigfox\manuf\rf_api.c"
 138  0137  3160        	set [96].2
 138  0138              _L16:
 139  0138              #line 139 "d:\sigfox-ep-example-holtek-bc68f2150-master-tb0\middleware\sigfox\manuf\rf_api.c"
 139  0138  3D60        	sz [96].2
 139  0139  2800     R  	jmp _L16
 141  013A              #line 141 "d:\sigfox-ep-example-holtek-bc68f2150-master-tb0\middleware\sigfox\manuf\rf_api.c"
 141  013A  33D6        	set [86].7
 143  013B              #line 143 "d:\sigfox-ep-example-holtek-bc68f2150-master-tb0\middleware\sigfox\manuf\rf_api.c"
 143  013B  3250        	set [80].4
 144  013C              #line 144 "d:\sigfox-ep-example-holtek-bc68f2150-master-tb0\middleware\sigfox\manuf\rf_api.c"
 144  013C  36D0        	clr [80].5
 146  013D              #line 146 "d:\sigfox-ep-example-holtek-bc68f2150-master-tb0\middleware\sigfox\manuf\rf_api.c"
 146  013D  3060        	set [96].0
 147  013E              #line 147 "d:\sigfox-ep-example-holtek-bc68f2150-master-tb0\middleware\sigfox\manuf\rf_api.c"
 147  013E              ;# 147 "d:\sigfox-ep-example-holtek-bc68f2150-master-tb0\middleware\sigfox\manuf\rf_api.c" 1
 147  013E              	IF 160>263690
 147  013E              ;# 147 "d:\sigfox-ep-example-holtek-bc68f2150-master-tb0\middleware\sigfox\manuf\rf_api.c" 1
 147  013E              	ERRMESSAGE 'the value 160of the argument exceeds the maxinum 263690'
 147  013E              	ENDIF
 147  013E              ;# 147 "d:\sigfox-ep-example-holtek-bc68f2150-master-tb0\middleware\sigfox\manuf\rf_api.c" 1
 147  013E              	IF 160<0
 147  013E              ;# 147 "d:\sigfox-ep-example-holtek-bc68f2150-master-tb0\middleware\sigfox\manuf\rf_api.c" 1
 147  013E              	ERRMESSAGE 'the value 160 of the argument exceeds the mininum 0'
 147  013E              	ENDIF
 147  013E              ;# 147 "d:\sigfox-ep-example-holtek-bc68f2150-master-tb0\middleware\sigfox\manuf\rf_api.c" 1
 147  013E              	IF 160==0
 147  013E              ;# 147 "d:\sigfox-ep-example-holtek-bc68f2150-master-tb0\middleware\sigfox\manuf\rf_api.c" 1
 147  013E              	JMP $
 147  013E              	ENDIF
 147  013E              ;# 147 "d:\sigfox-ep-example-holtek-bc68f2150-master-tb0\middleware\sigfox\manuf\rf_api.c" 1
 147  013E              	IF 160==1
 147  013E              ;# 147 "d:\sigfox-ep-example-holtek-bc68f2150-master-tb0\middleware\sigfox\manuf\rf_api.c" 1
 147  013E              	NOP
 147  013E              	ENDIF
 147  013E              ;# 147 "d:\sigfox-ep-example-holtek-bc68f2150-master-tb0\middleware\sigfox\manuf\rf_api.c" 1
 147  013E              	IF 160==2
 147  013E              ;# 147 "d:\sigfox-ep-example-holtek-bc68f2150-master-tb0\middleware\sigfox\manuf\rf_api.c" 1
 147  013E              	NOP
 147  013E              ;# 147 "d:\sigfox-ep-example-holtek-bc68f2150-master-tb0\middleware\sigfox\manuf\rf_api.c" 1
 147  013E              	NOP
 147  013E              	ENDIF
 147  013E              ;# 147 "d:\sigfox-ep-example-holtek-bc68f2150-master-tb0\middleware\sigfox\manuf\rf_api.c" 1
 147  013E              	IF 160==3
 147  013E              ;# 147 "d:\sigfox-ep-example-holtek-bc68f2150-master-tb0\middleware\sigfox\manuf\rf_api.c" 1
 147  013E              	NOP
 147  013E              ;# 147 "d:\sigfox-ep-example-holtek-bc68f2150-master-tb0\middleware\sigfox\manuf\rf_api.c" 1
 147  013E              	NOP
 147  013E              ;# 147 "d:\sigfox-ep-example-holtek-bc68f2150-master-tb0\middleware\sigfox\manuf\rf_api.c" 1
 147  013E              	NOP
 147  013E              	ENDIF
"File: rf_api.c      Assembler  Version HGASM0202      Page 13

 147  013E              ;# 147 "d:\sigfox-ep-example-holtek-bc68f2150-master-tb0\middleware\sigfox\manuf\rf_api.c" 1
 147  013E              	IF (160<8) AND (160>3)
 147  013E              ;# 147 "d:\sigfox-ep-example-holtek-bc68f2150-master-tb0\middleware\sigfox\manuf\rf_api.c" 1
 147  013E              	CALL __DELAY3 + 7 -160
 147  013E              	ENDIF
 147  013E              ;# 147 "d:\sigfox-ep-example-holtek-bc68f2150-master-tb0\middleware\sigfox\manuf\rf_api.c" 1
 147  013E              	IF (160< 0404h) AND (160>7)
 147  013E              ;# 147 "d:\sigfox-ep-example-holtek-bc68f2150-master-tb0\middleware\sigfox\manuf\rf_api.c" 1
 147  013E  0F27        	MOV A,160/4-1
 147  013F              ;# 147 "d:\sigfox-ep-example-holtek-bc68f2150-master-tb0\middleware\sigfox\manuf\rf_api.c" 1
 147  013F  2000     E  	CALL __DELAYX3 + 3 -(160 MOD 4)
 147  0140              	ENDIF
 147  0140              ;# 147 "d:\sigfox-ep-example-holtek-bc68f2150-master-tb0\middleware\sigfox\manuf\rf_api.c" 1
 147  0140              	IF (160< 0x40B) AND (160> 0403h)
 147  0140              ;# 147 "d:\sigfox-ep-example-holtek-bc68f2150-master-tb0\middleware\sigfox\manuf\rf_api.c" 1
 147  0140              	MOV A,0 
 147  0140              ;# 147 "d:\sigfox-ep-example-holtek-bc68f2150-master-tb0\middleware\sigfox\manuf\rf_api.c" 1
 147  0140              	CALL __DELAYX6 + 0x40a -160
 147  0140              	ENDIF
 147  0140              ;# 147 "d:\sigfox-ep-example-holtek-bc68f2150-master-tb0\middleware\sigfox\manuf\rf_api.c" 1
 147  0140              	IF (160 >= 0x40b) AND ((((160-9)%0402h)/4+1)>256)
 147  0140              ;# 147 "d:\sigfox-ep-example-holtek-bc68f2150-master-tb0\middleware\sigfox\manuf\rf_api.c" 1
 147  0140              	MOV A,(160-9)/0402h
 147  0140              ;# 147 "d:\sigfox-ep-example-holtek-bc68f2150-master-tb0\middleware\sigfox\manuf\rf_api.c" 1
 147  0140              	MOV _builtin_holtek_delay_2,A
 147  0140              ;# 147 "d:\sigfox-ep-example-holtek-bc68f2150-master-tb0\middleware\sigfox\manuf\rf_api.c" 1
 147  0140              	MOV A,0
 147  0140              ;# 147 "d:\sigfox-ep-example-holtek-bc68f2150-master-tb0\middleware\sigfox\manuf\rf_api.c" 1
 147  0140              	CALL __DELAYY5 +5- (((160-9)%0402h)%6)
 147  0140              	ENDIF
 147  0140              ;# 147 "d:\sigfox-ep-example-holtek-bc68f2150-master-tb0\middleware\sigfox\manuf\rf_api.c" 1
 147  0140              	IF (160 >= 0x40b) AND ((((160-9)%0402h)/4+1)<=256)
 147  0140              ;# 147 "d:\sigfox-ep-example-holtek-bc68f2150-master-tb0\middleware\sigfox\manuf\rf_api.c" 1
 147  0140              	MOV A,(160-9)/0402h
 147  0140              ;# 147 "d:\sigfox-ep-example-holtek-bc68f2150-master-tb0\middleware\sigfox\manuf\rf_api.c" 1
 147  0140              	MOV _builtin_holtek_delay_2,A
 147  0140              ;# 147 "d:\sigfox-ep-example-holtek-bc68f2150-master-tb0\middleware\sigfox\manuf\rf_api.c" 1
 147  0140              	MOV A,((160-9)%0402h)/4+1
 147  0140              ;# 147 "d:\sigfox-ep-example-holtek-bc68f2150-master-tb0\middleware\sigfox\manuf\rf_api.c" 1
 147  0140              	CALL __DELAYY3 +3-(((160-9)%0402h)%4)
 147  0140              	ENDIF
 149  0140              #line 149 "d:\sigfox-ep-example-holtek-bc68f2150-master-tb0\middleware\sigfox\manuf\rf_api.c"
 149  0140  30E0        	set [96].1
 149  0141  0003        	ret
 149  0142              _RF_API_init endp
 149  0142              #line 149 "d:\sigfox-ep-example-holtek-bc68f2150-master-tb0\middleware\sigfox\manuf\rf_api.c"
 149  0142              #pragma debug scope 1 1
 149  0142              ___pb equ [24]
 149  0142              public _RF_API_de_init
 149  0142              #pragma debug scope 7 1
 155  0142              #line 155 "d:\sigfox-ep-example-holtek-bc68f2150-master-tb0\middleware\sigfox\manuf\rf_api.c"
 155  0000              _RF_API_de_init .section 'code'
 155  0000              _RF_API_de_init proc
 160  0000              #line 160 "d:\sigfox-ep-example-holtek-bc68f2150-master-tb0\middleware\sigfox\manuf\rf_api.c"
 160  0000  3598        	clr [24].3
 161  0001              #line 161 "d:\sigfox-ep-example-holtek-bc68f2150-master-tb0\middleware\sigfox\manuf\rf_api.c"
 161  0001  0FC0        	mov a,192
 161  0002  00EF        	mov [111],a
 163  0003              #line 163 "d:\sigfox-ep-example-holtek-bc68f2150-master-tb0\middleware\sigfox\manuf\rf_api.c"
 163  0003  37D6        	clr [86].7
"File: rf_api.c      Assembler  Version HGASM0202      Page 14

 164  0004              #line 164 "d:\sigfox-ep-example-holtek-bc68f2150-master-tb0\middleware\sigfox\manuf\rf_api.c"
 164  0004  34E0        	clr [96].1
 165  0005              #line 165 "d:\sigfox-ep-example-holtek-bc68f2150-master-tb0\middleware\sigfox\manuf\rf_api.c"
 165  0005              ;# 165 "d:\sigfox-ep-example-holtek-bc68f2150-master-tb0\middleware\sigfox\manuf\rf_api.c" 1
 165  0005              	IF 16>263690
 165  0005              ;# 165 "d:\sigfox-ep-example-holtek-bc68f2150-master-tb0\middleware\sigfox\manuf\rf_api.c" 1
 165  0005              	ERRMESSAGE 'the value 16of the argument exceeds the maxinum 263690'
 165  0005              	ENDIF
 165  0005              ;# 165 "d:\sigfox-ep-example-holtek-bc68f2150-master-tb0\middleware\sigfox\manuf\rf_api.c" 1
 165  0005              	IF 16<0
 165  0005              ;# 165 "d:\sigfox-ep-example-holtek-bc68f2150-master-tb0\middleware\sigfox\manuf\rf_api.c" 1
 165  0005              	ERRMESSAGE 'the value 16 of the argument exceeds the mininum 0'
 165  0005              	ENDIF
 165  0005              ;# 165 "d:\sigfox-ep-example-holtek-bc68f2150-master-tb0\middleware\sigfox\manuf\rf_api.c" 1
 165  0005              	IF 16==0
 165  0005              ;# 165 "d:\sigfox-ep-example-holtek-bc68f2150-master-tb0\middleware\sigfox\manuf\rf_api.c" 1
 165  0005              	JMP $
 165  0005              	ENDIF
 165  0005              ;# 165 "d:\sigfox-ep-example-holtek-bc68f2150-master-tb0\middleware\sigfox\manuf\rf_api.c" 1
 165  0005              	IF 16==1
 165  0005              ;# 165 "d:\sigfox-ep-example-holtek-bc68f2150-master-tb0\middleware\sigfox\manuf\rf_api.c" 1
 165  0005              	NOP
 165  0005              	ENDIF
 165  0005              ;# 165 "d:\sigfox-ep-example-holtek-bc68f2150-master-tb0\middleware\sigfox\manuf\rf_api.c" 1
 165  0005              	IF 16==2
 165  0005              ;# 165 "d:\sigfox-ep-example-holtek-bc68f2150-master-tb0\middleware\sigfox\manuf\rf_api.c" 1
 165  0005              	NOP
 165  0005              ;# 165 "d:\sigfox-ep-example-holtek-bc68f2150-master-tb0\middleware\sigfox\manuf\rf_api.c" 1
 165  0005              	NOP
 165  0005              	ENDIF
 165  0005              ;# 165 "d:\sigfox-ep-example-holtek-bc68f2150-master-tb0\middleware\sigfox\manuf\rf_api.c" 1
 165  0005              	IF 16==3
 165  0005              ;# 165 "d:\sigfox-ep-example-holtek-bc68f2150-master-tb0\middleware\sigfox\manuf\rf_api.c" 1
 165  0005              	NOP
 165  0005              ;# 165 "d:\sigfox-ep-example-holtek-bc68f2150-master-tb0\middleware\sigfox\manuf\rf_api.c" 1
 165  0005              	NOP
 165  0005              ;# 165 "d:\sigfox-ep-example-holtek-bc68f2150-master-tb0\middleware\sigfox\manuf\rf_api.c" 1
 165  0005              	NOP
 165  0005              	ENDIF
 165  0005              ;# 165 "d:\sigfox-ep-example-holtek-bc68f2150-master-tb0\middleware\sigfox\manuf\rf_api.c" 1
 165  0005              	IF (16<8) AND (16>3)
 165  0005              ;# 165 "d:\sigfox-ep-example-holtek-bc68f2150-master-tb0\middleware\sigfox\manuf\rf_api.c" 1
 165  0005              	CALL __DELAY3 + 7 -16
 165  0005              	ENDIF
 165  0005              ;# 165 "d:\sigfox-ep-example-holtek-bc68f2150-master-tb0\middleware\sigfox\manuf\rf_api.c" 1
 165  0005              	IF (16< 0404h) AND (16>7)
 165  0005              ;# 165 "d:\sigfox-ep-example-holtek-bc68f2150-master-tb0\middleware\sigfox\manuf\rf_api.c" 1
 165  0005  0F03        	MOV A,16/4-1
 165  0006              ;# 165 "d:\sigfox-ep-example-holtek-bc68f2150-master-tb0\middleware\sigfox\manuf\rf_api.c" 1
 165  0006  2000     E  	CALL __DELAYX3 + 3 -(16 MOD 4)
 165  0007              	ENDIF
 165  0007              ;# 165 "d:\sigfox-ep-example-holtek-bc68f2150-master-tb0\middleware\sigfox\manuf\rf_api.c" 1
 165  0007              	IF (16< 0x40B) AND (16> 0403h)
 165  0007              ;# 165 "d:\sigfox-ep-example-holtek-bc68f2150-master-tb0\middleware\sigfox\manuf\rf_api.c" 1
 165  0007              	MOV A,0 
 165  0007              ;# 165 "d:\sigfox-ep-example-holtek-bc68f2150-master-tb0\middleware\sigfox\manuf\rf_api.c" 1
 165  0007              	CALL __DELAYX6 + 0x40a -16
 165  0007              	ENDIF
 165  0007              ;# 165 "d:\sigfox-ep-example-holtek-bc68f2150-master-tb0\middleware\sigfox\manuf\rf_api.c" 1
 165  0007              	IF (16 >= 0x40b) AND ((((16-9)%0402h)/4+1)>256)
"File: rf_api.c      Assembler  Version HGASM0202      Page 15

 165  0007              ;# 165 "d:\sigfox-ep-example-holtek-bc68f2150-master-tb0\middleware\sigfox\manuf\rf_api.c" 1
 165  0007              	MOV A,(16-9)/0402h
 165  0007              ;# 165 "d:\sigfox-ep-example-holtek-bc68f2150-master-tb0\middleware\sigfox\manuf\rf_api.c" 1
 165  0007              	MOV _builtin_holtek_delay_2,A
 165  0007              ;# 165 "d:\sigfox-ep-example-holtek-bc68f2150-master-tb0\middleware\sigfox\manuf\rf_api.c" 1
 165  0007              	MOV A,0
 165  0007              ;# 165 "d:\sigfox-ep-example-holtek-bc68f2150-master-tb0\middleware\sigfox\manuf\rf_api.c" 1
 165  0007              	CALL __DELAYY5 +5- (((16-9)%0402h)%6)
 165  0007              	ENDIF
 165  0007              ;# 165 "d:\sigfox-ep-example-holtek-bc68f2150-master-tb0\middleware\sigfox\manuf\rf_api.c" 1
 165  0007              	IF (16 >= 0x40b) AND ((((16-9)%0402h)/4+1)<=256)
 165  0007              ;# 165 "d:\sigfox-ep-example-holtek-bc68f2150-master-tb0\middleware\sigfox\manuf\rf_api.c" 1
 165  0007              	MOV A,(16-9)/0402h
 165  0007              ;# 165 "d:\sigfox-ep-example-holtek-bc68f2150-master-tb0\middleware\sigfox\manuf\rf_api.c" 1
 165  0007              	MOV _builtin_holtek_delay_2,A
 165  0007              ;# 165 "d:\sigfox-ep-example-holtek-bc68f2150-master-tb0\middleware\sigfox\manuf\rf_api.c" 1
 165  0007              	MOV A,((16-9)%0402h)/4+1
 165  0007              ;# 165 "d:\sigfox-ep-example-holtek-bc68f2150-master-tb0\middleware\sigfox\manuf\rf_api.c" 1
 165  0007              	CALL __DELAYY3 +3-(((16-9)%0402h)%4)
 165  0007              	ENDIF
 166  0007              #line 166 "d:\sigfox-ep-example-holtek-bc68f2150-master-tb0\middleware\sigfox\manuf\rf_api.c"
 166  0007  3460        	clr [96].0
 166  0008  0003        	ret
 166  0009              _RF_API_de_init endp
 166  0009              #line 166 "d:\sigfox-ep-example-holtek-bc68f2150-master-tb0\middleware\sigfox\manuf\rf_api.c"
 166  0009              #pragma debug scope 1 1
 166  0009              ___mfi0 equ [42]
 166  0009              public _RF_API_send
 166  0009              #pragma debug scope 8 1
 172  0009              #line 172 "d:\sigfox-ep-example-holtek-bc68f2150-master-tb0\middleware\sigfox\manuf\rf_api.c"
 172  0000              _RF_API_send .section 'code'
 172  0000              _RF_API_send proc
 172  0000              public _RF_API_send_2
 172  0000  0026[           local _RF_API_send_2 db 38 dup(?)	; 2,36
            00
            ]
 172  0026              #pragma debug struct_end
 172  0026              #pragma debug struct_end
 172  0026              #pragma debug pointer 45 44 8
 172  0026              #pragma debug pointer 45 44 8
 172  0026              #pragma debug variable 45 8 _RF_API_send_2+0 "tx_data"
 172  0026              #pragma debug variable 8 8 _RF_API_send_2+16 "flipflop"
 172  0026              #pragma debug variable 8 8 _RF_API_send_2+20 "bitCnt"
 172  0026              #pragma debug variable 8 8 _RF_API_send_2+8 "byteCnt"
 172  0026              #pragma debug variable 10 8 _RF_API_send_2+17 "deltaf"
 183  0026              #line 183 "d:\sigfox-ep-example-holtek-bc68f2150-master-tb0\middleware\sigfox\manuf\rf_api.c"
 183  0000  0700     R  	mov a,_const_table_ptr[0]
 183  0001  0080     R  	mov _RF_API_send_2[6],a
 183  0002  0700     R  	mov a,_const_table_ptr[1]
 183  0003  0080     R  	mov _RF_API_send_2[7],a
 183  0004  0F01        	mov a,1
 183  0005  0300     R  	add a,_RF_API_send_2[6]
 183  0006  0083        	mov mp,a
 183  0007  0F00        	mov a,0
 183  0008  1300     R  	adc a,_RF_API_send_2[7]
 183  0009  0084        	mov sbp,a
 183  000A  2000     E  	call _Crom2Prom
 183  000B  0080     R  	mov _RF_API_send_2[17],a
 183  000C  2000     E  	call _Crom2PromNext
 183  000D  0080     R  	mov _RF_API_send_2[18],a
"File: rf_api.c      Assembler  Version HGASM0202      Page 16

 184  000E              #line 184 "d:\sigfox-ep-example-holtek-bc68f2150-master-tb0\middleware\sigfox\manuf\rf_api.c"
 184  000E  0764        	mov a,[100]
 184  000F  0080     E  	mov rd,a
 184  0010  1F00     E  	clr re
 184  0011  1F00     E  	clr rf
 184  0012  1F00     E  	clr rg
 185  0013              #line 185 "d:\sigfox-ep-example-holtek-bc68f2150-master-tb0\middleware\sigfox\manuf\rf_api.c"
 185  0013  0700     E  	mov a,rf
 185  0014  0080     E  	mov rg,a
 185  0015  0700     E  	mov a,re
 185  0016  0080     E  	mov rf,a
 185  0017  0700     E  	mov a,rd
 185  0018  0080     E  	mov re,a
 185  0019  1F00     E  	clr rd
 186  001A              #line 186 "d:\sigfox-ep-example-holtek-bc68f2150-master-tb0\middleware\sigfox\manuf\rf_api.c"
 186  001A  0763        	mov a,[99]
 186  001B  0080     R  	mov _RF_API_send_2[2],a
 186  001C  1F00     R  	clr _RF_API_send_2[3]
 186  001D  1F00     R  	clr _RF_API_send_2[4]
 186  001E  1F00     R  	clr _RF_API_send_2[5]
 186  001F  0700     R  	mov a,_RF_API_send_2[5]
 186  0020  0580     E  	orm a,rg
 186  0021  0700     R  	mov a,_RF_API_send_2[4]
 186  0022  0580     E  	orm a,rf
 186  0023  0700     R  	mov a,_RF_API_send_2[3]
 186  0024  0580     E  	orm a,re
 186  0025  0700     R  	mov a,_RF_API_send_2[2]
 186  0026  0580     E  	orm a,rd
 187  0027              #line 187 "d:\sigfox-ep-example-holtek-bc68f2150-master-tb0\middleware\sigfox\manuf\rf_api.c"
 187  0027  0700     E  	mov a,rf
 187  0028  0080     E  	mov rg,a
 187  0029  0700     E  	mov a,re
 187  002A  0080     E  	mov rf,a
 187  002B  0700     E  	mov a,rd
 187  002C  0080     E  	mov re,a
 187  002D  1F00     E  	clr rd
 188  002E              #line 188 "d:\sigfox-ep-example-holtek-bc68f2150-master-tb0\middleware\sigfox\manuf\rf_api.c"
 188  002E  0762        	mov a,[98]
 188  002F  0080     R  	mov _RF_API_send_2[2],a
 188  0030  1F00     R  	clr _RF_API_send_2[3]
 188  0031  1F00     R  	clr _RF_API_send_2[4]
 188  0032  1F00     R  	clr _RF_API_send_2[5]
 188  0033  0700     E  	mov a,rg
 188  0034  0500     R  	or a,_RF_API_send_2[5]
 188  0035  0080     R  	mov _RF_API_send_2[5],a
 188  0036  0700     E  	mov a,rf
 188  0037  0500     R  	or a,_RF_API_send_2[4]
 188  0038  0080     R  	mov _RF_API_send_2[4],a
 188  0039  0700     E  	mov a,re
 188  003A  0500     R  	or a,_RF_API_send_2[3]
 188  003B  0080     R  	mov _RF_API_send_2[3],a
 188  003C  0700     E  	mov a,rd
 188  003D  0500     R  	or a,_RF_API_send_2[2]
 188  003E  0080     R  	mov _RF_API_send_2[2],a
 190  003F              #line 190 "d:\sigfox-ep-example-holtek-bc68f2150-master-tb0\middleware\sigfox\manuf\rf_api.c"
 190  003F  31BA        	set [58].3
 191  0040              #line 191 "d:\sigfox-ep-example-holtek-bc68f2150-master-tb0\middleware\sigfox\manuf\rf_api.c"
 191  0040  36AA        	clr [42].5
 193  0041              #line 193 "d:\sigfox-ep-example-holtek-bc68f2150-master-tb0\middleware\sigfox\manuf\rf_api.c"
 193  0041  0700     R  	mov a,_RF_API_send_2[6]
"File: rf_api.c      Assembler  Version HGASM0202      Page 17

 193  0042  0083        	mov mp,a
 193  0043  0700     R  	mov a,_RF_API_send_2[7]
 193  0044  0084        	mov sbp,a
 193  0045  2000     E  	call _Crom2Prom
 193  0046  0080     E  	mov rh,a
 193  0047  0700     E  	mov a,rh
 193  0048  0080     R  	mov _RF_API_send_2[12],a
 193  0049  1F00     R  	clr _RF_API_send_2[13]
 193  004A  340A        	clr c
 193  004B  1A00     R  	rlca _RF_API_send_2[12]
 193  004C  0080     R  	mov _RF_API_send_2[21],a
 193  004D  1A00     R  	rlca _RF_API_send_2[13]
 193  004E  0080     R  	mov _RF_API_send_2[22],a
 197  004F              #line 197 "d:\sigfox-ep-example-holtek-bc68f2150-master-tb0\middleware\sigfox\manuf\rf_api.c"
 197  004F  0FFF        	mov a,255
 197  0050  0300     R  	add a,_RF_API_send_2[12]
 197  0051  0080     R  	mov _RF_API_send_2[14],a
 197  0052  0FFF        	mov a,255
 197  0053  1300     R  	adc a,_RF_API_send_2[13]
 197  0054  0080     R  	mov _RF_API_send_2[15],a
 193  0055              #line 193 "d:\sigfox-ep-example-holtek-bc68f2150-master-tb0\middleware\sigfox\manuf\rf_api.c"
 193  0055  1F00     E  	clr ra
 199  0056              #line 199 "d:\sigfox-ep-example-holtek-bc68f2150-master-tb0\middleware\sigfox\manuf\rf_api.c"
 199  0056  0F03        	mov a,3
 199  0057  0300     R  	add a,_RF_API_send_2[6]
 199  0058  0080     E  	mov rd,a
 199  0059  0F00        	mov a,0
 199  005A  1300     R  	adc a,_RF_API_send_2[7]
 199  005B  0080     E  	mov re,a
 199  005C              _L19:
 193  005C              #line 193 "d:\sigfox-ep-example-holtek-bc68f2150-master-tb0\middleware\sigfox\manuf\rf_api.c"
 193  005C  0700     E  	mov a,ra
 193  005D  0080     E  	mov rb,a
 193  005E  1F00     E  	clr rc
 193  005F  0700     E  	mov a,rb
 193  0060  0200     R  	sub a,_RF_API_send_2[21]
 193  0061  0700     E  	mov a,rc
 193  0062  1200     R  	sbc a,_RF_API_send_2[22]
 193  0063  3B8A        	snz sc
 193  0064  2800     R  	jmp _L48
 194  0065              #line 194 "d:\sigfox-ep-example-holtek-bc68f2150-master-tb0\middleware\sigfox\manuf\rf_api.c"
 194  0065  1F00     E  	clr rf
 194  0066  3998        	snz [24].3
 194  0067  3000     E  	set rf.3
 194  0068  3598        	clr [24].3
 194  0069  0700     E  	mov a,rf
 194  006A  0598        	orm a,[24]
 196  006B              #line 196 "d:\sigfox-ep-example-holtek-bc68f2150-master-tb0\middleware\sigfox\manuf\rf_api.c"
 196  006B  0700     E  	mov a,ra
 196  006C  0200     E  	sub a,rh
 196  006D  3C0A        	sz c
 196  006E  2800     R  	jmp _L20
 197  006F              #line 197 "d:\sigfox-ep-example-holtek-bc68f2150-master-tb0\middleware\sigfox\manuf\rf_api.c"
 197  006F  0700     R  	mov a,_RF_API_send_2[14]
 197  0070  0280     E  	subm a,rb
 197  0071  0700     R  	mov a,_RF_API_send_2[15]
 197  0072  1280     E  	sbcm a,rc
 197  0073  0700     R  	mov a,_RF_API_send_2[6]
 197  0074  0380     E  	addm a,rb
 197  0075  0700     R  	mov a,_RF_API_send_2[7]
"File: rf_api.c      Assembler  Version HGASM0202      Page 18

 197  0076  1380     E  	adcm a,rc
 197  0077  0F03        	mov a,3
 197  0078  0300     E  	add a,rb
 197  0079  0083        	mov mp,a
 197  007A  0F00        	mov a,0
 197  007B  1300     E  	adc a,rc
 197  007C  0084        	mov sbp,a
 197  007D  2800     R  	jmp _L45
 197  007E              _L20:
 199  007E              #line 199 "d:\sigfox-ep-example-holtek-bc68f2150-master-tb0\middleware\sigfox\manuf\rf_api.c"
 199  007E  0700     E  	mov a,rd
 199  007F  0083        	mov mp,a
 199  0080  0700     E  	mov a,re
 199  0081  0084        	mov sbp,a
 199  0082              _L45:
 199  0082  2000     E  	call _Crom2Prom
 199  0083  00EF        	mov [111],a
 199  0084              _L23:
 201  0084              #line 201 "d:\sigfox-ep-example-holtek-bc68f2150-master-tb0\middleware\sigfox\manuf\rf_api.c"
 201  0084  3AAA        	snz [42].5
 201  0085  2800     R  	jmp _L23
 202  0086              #line 202 "d:\sigfox-ep-example-holtek-bc68f2150-master-tb0\middleware\sigfox\manuf\rf_api.c"
 202  0086  36AA        	clr [42].5
 193  0087              #line 193 "d:\sigfox-ep-example-holtek-bc68f2150-master-tb0\middleware\sigfox\manuf\rf_api.c"
 193  0087  1480     E  	inc ra
 193  0088  2800     R  	jmp _L19
 193  0089              _L48:
 205  0089              #line 205 "d:\sigfox-ep-example-holtek-bc68f2150-master-tb0\middleware\sigfox\manuf\rf_api.c"
 205  0089  0F02        	mov a,2
 205  008A  0300     R  	add a,_RF_API_send_2[0]
 205  008B  0083        	mov mp,a
 205  008C  0F00        	mov a,0
 205  008D  1300     R  	adc a,_RF_API_send_2[1]
 205  008E  0084        	mov sbp,a
 205  008F  2000     E  	call _Crom2Prom
 205  0090  0080     R  	mov _RF_API_send_2[25],a
 215  0091              #line 215 "d:\sigfox-ep-example-holtek-bc68f2150-master-tb0\middleware\sigfox\manuf\rf_api.c"
 215  0091  0700     R  	mov a,_RF_API_send_2[4]
 215  0092  0080     R  	mov _RF_API_send_2[23],a
 216  0093              #line 216 "d:\sigfox-ep-example-holtek-bc68f2150-master-tb0\middleware\sigfox\manuf\rf_api.c"
 216  0093  0700     R  	mov a,_RF_API_send_2[3]
 216  0094  0080     R  	mov _RF_API_send_2[24],a
 224  0095              #line 224 "d:\sigfox-ep-example-holtek-bc68f2150-master-tb0\middleware\sigfox\manuf\rf_api.c"
 224  0095  0700     R  	mov a,_RF_API_send_2[17]
 224  0096  0080     R  	mov _RF_API_send_2[34],a
 224  0097  0700     R  	mov a,_RF_API_send_2[18]
 224  0098  0080     R  	mov _RF_API_send_2[35],a
 224  0099  1F00     R  	clr _RF_API_send_2[36]
 224  009A  1F00     R  	clr _RF_API_send_2[37]
 224  009B  0700     R  	mov a,_RF_API_send_2[2]
 224  009C  0200     R  	sub a,_RF_API_send_2[34]
 224  009D  0080     E  	mov ra,a
 224  009E  0700     R  	mov a,_RF_API_send_2[3]
 224  009F  1200     R  	sbc a,_RF_API_send_2[35]
 224  00A0  0080     E  	mov rb,a
 224  00A1  0700     R  	mov a,_RF_API_send_2[4]
 224  00A2  1200     R  	sbc a,_RF_API_send_2[36]
 224  00A3  0080     E  	mov rc,a
 224  00A4  0700     R  	mov a,_RF_API_send_2[5]
 224  00A5  1200     R  	sbc a,_RF_API_send_2[37]
"File: rf_api.c      Assembler  Version HGASM0202      Page 19

 224  00A6  0080     E  	mov rd,a
 224  00A7  0700     E  	mov a,ra
 224  00A8  0080     R  	mov _RF_API_send_2[8],a
 224  00A9  0700     E  	mov a,rb
 224  00AA  0080     R  	mov _RF_API_send_2[9],a
 224  00AB  0700     E  	mov a,rc
 224  00AC  0080     R  	mov _RF_API_send_2[10],a
 224  00AD  0700     E  	mov a,rd
 224  00AE  0080     R  	mov _RF_API_send_2[11],a
 224  00AF  0700     E  	mov a,rc
 224  00B0  0080     R  	mov _RF_API_send_2[26],a
 225  00B1              #line 225 "d:\sigfox-ep-example-holtek-bc68f2150-master-tb0\middleware\sigfox\manuf\rf_api.c"
 225  00B1  0700     E  	mov a,rb
 225  00B2  0080     R  	mov _RF_API_send_2[27],a
 229  00B3              #line 229 "d:\sigfox-ep-example-holtek-bc68f2150-master-tb0\middleware\sigfox\manuf\rf_api.c"
 229  00B3  0700     R  	mov a,_RF_API_send_2[2]
 229  00B4  0300     R  	add a,_RF_API_send_2[34]
 229  00B5  0080     E  	mov rd,a
 229  00B6  0700     R  	mov a,_RF_API_send_2[3]
 229  00B7  1300     R  	adc a,_RF_API_send_2[35]
 229  00B8  0080     E  	mov re,a
 229  00B9  0700     R  	mov a,_RF_API_send_2[4]
 229  00BA  1300     R  	adc a,_RF_API_send_2[36]
 229  00BB  0080     E  	mov rf,a
 229  00BC  0700     R  	mov a,_RF_API_send_2[5]
 229  00BD  1300     R  	adc a,_RF_API_send_2[37]
 229  00BE  0080     E  	mov rg,a
 229  00BF  0700     E  	mov a,rf
 229  00C0  0080     R  	mov _RF_API_send_2[28],a
 230  00C1              #line 230 "d:\sigfox-ep-example-holtek-bc68f2150-master-tb0\middleware\sigfox\manuf\rf_api.c"
 230  00C1  0700     E  	mov a,re
 230  00C2  0080     R  	mov _RF_API_send_2[29],a
 230  00C3  1F00     R  	clr _RF_API_send_2[8]
 230  00C4  1F00     R  	clr _RF_API_send_2[16]
 235  00C5              #line 235 "d:\sigfox-ep-example-holtek-bc68f2150-master-tb0\middleware\sigfox\manuf\rf_api.c"
 235  00C5  340A        	clr c
 235  00C6  1A00     R  	rlca _RF_API_send_2[12]
 235  00C7  0080     E  	mov rb,a
 235  00C8  1A00     R  	rlca _RF_API_send_2[13]
 235  00C9  0080     E  	mov rc,a
 235  00CA  0FFF        	mov a,255
 235  00CB  0300     E  	add a,rb
 235  00CC  0080     R  	mov _RF_API_send_2[32],a
 235  00CD  0FFF        	mov a,255
 235  00CE  1300     E  	adc a,rc
 235  00CF  0080     R  	mov _RF_API_send_2[33],a
 235  00D0              _L25:
 205  00D0              #line 205 "d:\sigfox-ep-example-holtek-bc68f2150-master-tb0\middleware\sigfox\manuf\rf_api.c"
 205  00D0  0700     R  	mov a,_RF_API_send_2[8]
 205  00D1  0200     R  	sub a,_RF_API_send_2[25]
 205  00D2  390A        	snz z
 205  00D3  2800     R  	jmp _L35
 205  00D4  1F00     E  	clr ra
 252  00D5              #line 252 "d:\sigfox-ep-example-holtek-bc68f2150-master-tb0\middleware\sigfox\manuf\rf_api.c"
 252  00D5  0F03        	mov a,3
 252  00D6  0300     R  	add a,_RF_API_send_2[6]
 252  00D7  0080     E  	mov rd,a
 252  00D8  0F00        	mov a,0
 252  00D9  1300     R  	adc a,_RF_API_send_2[7]
 252  00DA  0080     E  	mov re,a
"File: rf_api.c      Assembler  Version HGASM0202      Page 20

 252  00DB  2800     R  	jmp _L36
 252  00DC              _L35:
 205  00DC              #line 205 "d:\sigfox-ep-example-holtek-bc68f2150-master-tb0\middleware\sigfox\manuf\rf_api.c"
 205  00DC  0F08        	mov a,8
 205  00DD  0080     R  	mov _RF_API_send_2[19],a
 205  00DE  1F00     R  	clr _RF_API_send_2[20]
 205  00DF              _L37:
 211  00DF              #line 211 "d:\sigfox-ep-example-holtek-bc68f2150-master-tb0\middleware\sigfox\manuf\rf_api.c"
 211  00DF  0F80        	mov a,-128
 211  00E0  0080     E  	mov rf,a
 211  00E1  1F00     E  	clr rg
 211  00E2  1400     R  	inca _RF_API_send_2[20]
 211  00E3  2800     R  	jmp _LI1
 211  00E4              _LI2:
 211  00E4  340A        	clr c
 211  00E5  3C00     E  	sz rg.7
 211  00E6  300A        	set c
 211  00E7  1B80     E  	rrc rg
 211  00E8  1B80     E  	rrc rf
 211  00E9              _LI1:
 211  00E9  1785        	sdz acc
 211  00EA  2800     R  	jmp _LI2
 211  00EB  1F00     E  	clr ra
 211  00EC  0700     R  	mov a,_RF_API_send_2[8]
 211  00ED  0080     R  	mov _RF_API_send_2[30],a
 211  00EE  1F00     R  	clr _RF_API_send_2[31]
 211  00EF              _L34:
 207  00EF              #line 207 "d:\sigfox-ep-example-holtek-bc68f2150-master-tb0\middleware\sigfox\manuf\rf_api.c"
 207  00EF  0700     E  	mov a,ra
 207  00F0  0080     E  	mov rb,a
 207  00F1  1F00     E  	clr rc
 207  00F2  0700     E  	mov a,rb
 207  00F3  0200     R  	sub a,_RF_API_send_2[21]
 207  00F4  0700     E  	mov a,rc
 207  00F5  1200     R  	sbc a,_RF_API_send_2[22]
 207  00F6  3B8A        	snz sc
 207  00F7  2800     R  	jmp _L49
 208  00F8              #line 208 "d:\sigfox-ep-example-holtek-bc68f2150-master-tb0\middleware\sigfox\manuf\rf_api.c"
 208  00F8  1F00     E  	clr rd
 208  00F9  3998        	snz [24].3
 208  00FA  3000     E  	set rd.3
 208  00FB  3598        	clr [24].3
 208  00FC  0700     E  	mov a,rd
 208  00FD  0598        	orm a,[24]
 208  00FE              _L27:
 209  00FE              #line 209 "d:\sigfox-ep-example-holtek-bc68f2150-master-tb0\middleware\sigfox\manuf\rf_api.c"
 209  00FE  3AAA        	snz [42].5
 209  00FF  2800     R  	jmp _L27
 210  0100              #line 210 "d:\sigfox-ep-example-holtek-bc68f2150-master-tb0\middleware\sigfox\manuf\rf_api.c"
 210  0100  36AA        	clr [42].5
 211  0101              #line 211 "d:\sigfox-ep-example-holtek-bc68f2150-master-tb0\middleware\sigfox\manuf\rf_api.c"
 211  0101  0700     R  	mov a,_RF_API_send_2[0]
 211  0102  0083        	mov mp,a
 211  0103  0700     R  	mov a,_RF_API_send_2[1]
 211  0104  0084        	mov sbp,a
 211  0105  2000     E  	call _Crom2Prom
 211  0106  0080     E  	mov rd,a
 211  0107  2000     E  	call _Crom2PromNext
 211  0108  0080     E  	mov re,a
 211  0109  0700     R  	mov a,_RF_API_send_2[30]
"File: rf_api.c      Assembler  Version HGASM0202      Page 21

 211  010A  0300     E  	add a,rd
 211  010B  0083        	mov mp,a
 211  010C  0700     R  	mov a,_RF_API_send_2[31]
 211  010D  1300     E  	adc a,re
 211  010E  0084        	mov sbp,a
 211  010F  2000     E  	call _Crom2Prom
 211  0110  0080     E  	mov rd,a
 211  0111  1F00     E  	clr re
 211  0112  0700     E  	mov a,rf  
 211  0113  0680     E  	andm a,rd  
 211  0114  0700     E  	mov a,rg  
 211  0115  0680     E  	andm a,re
 211  0116  0700     E  	mov a,rd
 211  0117  0500     E  	or a,re
 211  0118  390A        	snz z
 211  0119  2800     R  	jmp _L28
 212  011A              #line 212 "d:\sigfox-ep-example-holtek-bc68f2150-master-tb0\middleware\sigfox\manuf\rf_api.c"
 212  011A  0700     E  	mov a,rb
 212  011B  0200     R  	sub a,_RF_API_send_2[14]
 212  011C  0700     E  	mov a,rc
 212  011D  1200     R  	sbc a,_RF_API_send_2[15]
 212  011E  3F8A        	sz sc
 212  011F  2800     R  	jmp _L46
 219  0120              #line 219 "d:\sigfox-ep-example-holtek-bc68f2150-master-tb0\middleware\sigfox\manuf\rf_api.c"
 219  0120  0700     E  	mov a,rb
 219  0121  0200     R  	sub a,_RF_API_send_2[14]
 219  0122  0700     E  	mov a,rc
 219  0123  1200     R  	sbc a,_RF_API_send_2[15]
 219  0124  3B0A        	snz cz
 219  0125  2800     R  	jmp _L30
 220  0126              #line 220 "d:\sigfox-ep-example-holtek-bc68f2150-master-tb0\middleware\sigfox\manuf\rf_api.c"
 220  0126  0700     R  	mov a,_RF_API_send_2[14]
 220  0127  0300     R  	add a,_RF_API_send_2[6]
 220  0128  0080     E  	mov rb,a
 220  0129  0700     R  	mov a,_RF_API_send_2[15]
 220  012A  1300     R  	adc a,_RF_API_send_2[7]
 220  012B  0080     E  	mov rc,a
 220  012C  0F03        	mov a,3
 220  012D  0300     E  	add a,rb
 220  012E  0083        	mov mp,a
 220  012F  0F00        	mov a,0
 220  0130  1300     E  	adc a,rc
 220  0131  0084        	mov sbp,a
 220  0132  2000     E  	call _Crom2Prom
 220  0133  00EF        	mov [111],a
 223  0134              #line 223 "d:\sigfox-ep-example-holtek-bc68f2150-master-tb0\middleware\sigfox\manuf\rf_api.c"
 223  0134  1700     R  	sdza _RF_API_send_2[16]
 223  0135  2800     R  	jmp _L31
 224  0136              #line 224 "d:\sigfox-ep-example-holtek-bc68f2150-master-tb0\middleware\sigfox\manuf\rf_api.c"
 224  0136  0700     R  	mov a,_RF_API_send_2[26]
 224  0137  00E4        	mov [100],a
 225  0138              #line 225 "d:\sigfox-ep-example-holtek-bc68f2150-master-tb0\middleware\sigfox\manuf\rf_api.c"
 225  0138  0700     R  	mov a,_RF_API_send_2[27]
 225  0139  00E3        	mov [99],a
 226  013A              #line 226 "d:\sigfox-ep-example-holtek-bc68f2150-master-tb0\middleware\sigfox\manuf\rf_api.c"
 226  013A  0700     R  	mov a,_RF_API_send_2[2]
 226  013B  0200     R  	sub a,_RF_API_send_2[17]
 226  013C  00E2        	mov [98],a
 227  013D              #line 227 "d:\sigfox-ep-example-holtek-bc68f2150-master-tb0\middleware\sigfox\manuf\rf_api.c"
 227  013D  1F00     R  	clr _RF_API_send_2[16]
"File: rf_api.c      Assembler  Version HGASM0202      Page 22

 227  013E  2800     R  	jmp _L28
 227  013F              _L31:
 229  013F              #line 229 "d:\sigfox-ep-example-holtek-bc68f2150-master-tb0\middleware\sigfox\manuf\rf_api.c"
 229  013F  0700     R  	mov a,_RF_API_send_2[28]
 229  0140  00E4        	mov [100],a
 230  0141              #line 230 "d:\sigfox-ep-example-holtek-bc68f2150-master-tb0\middleware\sigfox\manuf\rf_api.c"
 230  0141  0700     R  	mov a,_RF_API_send_2[29]
 230  0142  00E3        	mov [99],a
 231  0143              #line 231 "d:\sigfox-ep-example-holtek-bc68f2150-master-tb0\middleware\sigfox\manuf\rf_api.c"
 231  0143  0700     R  	mov a,_RF_API_send_2[2]
 231  0144  0300     R  	add a,_RF_API_send_2[17]
 231  0145  00E2        	mov [98],a
 232  0146              #line 232 "d:\sigfox-ep-example-holtek-bc68f2150-master-tb0\middleware\sigfox\manuf\rf_api.c"
 232  0146  0F01        	mov a,1
 232  0147  0080     R  	mov _RF_API_send_2[16],a
 232  0148  2800     R  	jmp _L28
 232  0149              _L30:
 235  0149              #line 235 "d:\sigfox-ep-example-holtek-bc68f2150-master-tb0\middleware\sigfox\manuf\rf_api.c"
 235  0149  0700     R  	mov a,_RF_API_send_2[32]
 235  014A  0280     E  	subm a,rb
 235  014B  0700     R  	mov a,_RF_API_send_2[33]
 235  014C  1280     E  	sbcm a,rc
 235  014D              _L46:
 235  014D  0700     R  	mov a,_RF_API_send_2[6]
 235  014E  0380     E  	addm a,rb
 235  014F  0700     R  	mov a,_RF_API_send_2[7]
 235  0150  1380     E  	adcm a,rc
 235  0151  0F03        	mov a,3
 235  0152  0300     E  	add a,rb
 235  0153  0083        	mov mp,a
 235  0154  0F00        	mov a,0
 235  0155  1300     E  	adc a,rc
 235  0156  0084        	mov sbp,a
 235  0157  2000     E  	call _Crom2Prom
 235  0158  00EF        	mov [111],a
 237  0159              #line 237 "d:\sigfox-ep-example-holtek-bc68f2150-master-tb0\middleware\sigfox\manuf\rf_api.c"
 237  0159  0700     R  	mov a,_RF_API_send_2[23]
 237  015A  00E4        	mov [100],a
 238  015B              #line 238 "d:\sigfox-ep-example-holtek-bc68f2150-master-tb0\middleware\sigfox\manuf\rf_api.c"
 238  015B  0700     R  	mov a,_RF_API_send_2[24]
 238  015C  00E3        	mov [99],a
 239  015D              #line 239 "d:\sigfox-ep-example-holtek-bc68f2150-master-tb0\middleware\sigfox\manuf\rf_api.c"
 239  015D  0700     R  	mov a,_RF_API_send_2[2]
 239  015E  00E2        	mov [98],a
 239  015F              _L28:
 207  015F              #line 207 "d:\sigfox-ep-example-holtek-bc68f2150-master-tb0\middleware\sigfox\manuf\rf_api.c"
 207  015F  1480     E  	inc ra
 207  0160  2800     R  	jmp _L34
 207  0161              _L49:
 206  0161              #line 206 "d:\sigfox-ep-example-holtek-bc68f2150-master-tb0\middleware\sigfox\manuf\rf_api.c"
 206  0161  1480     R  	inc _RF_API_send_2[20]
 206  0162  1780     R  	sdz _RF_API_send_2[19]
 206  0163  2800     R  	jmp _L37
 205  0164              #line 205 "d:\sigfox-ep-example-holtek-bc68f2150-master-tb0\middleware\sigfox\manuf\rf_api.c"
 205  0164  1480     R  	inc _RF_API_send_2[8]
 205  0165  2800     R  	jmp _L25
 205  0166              _L39:
 248  0166              #line 248 "d:\sigfox-ep-example-holtek-bc68f2150-master-tb0\middleware\sigfox\manuf\rf_api.c"
 248  0166  3AAA        	snz [42].5
 248  0167  2800     R  	jmp _L39
"File: rf_api.c      Assembler  Version HGASM0202      Page 23

 249  0168              #line 249 "d:\sigfox-ep-example-holtek-bc68f2150-master-tb0\middleware\sigfox\manuf\rf_api.c"
 249  0168  36AA        	clr [42].5
 251  0169              #line 251 "d:\sigfox-ep-example-holtek-bc68f2150-master-tb0\middleware\sigfox\manuf\rf_api.c"
 251  0169  0700     E  	mov a,ra
 251  016A  0200     E  	sub a,rh
 251  016B  3C0A        	sz c
 251  016C  2800     R  	jmp _L40
 252  016D              #line 252 "d:\sigfox-ep-example-holtek-bc68f2150-master-tb0\middleware\sigfox\manuf\rf_api.c"
 252  016D  0700     E  	mov a,rd
 252  016E  0083        	mov mp,a
 252  016F  0700     E  	mov a,re
 252  0170  0084        	mov sbp,a
 252  0171              _L47:
 254  0171              #line 254 "d:\sigfox-ep-example-holtek-bc68f2150-master-tb0\middleware\sigfox\manuf\rf_api.c"
 254  0171  2000     E  	call _Crom2Prom
 254  0172  00EF        	mov [111],a
 246  0173              #line 246 "d:\sigfox-ep-example-holtek-bc68f2150-master-tb0\middleware\sigfox\manuf\rf_api.c"
 246  0173  1480     E  	inc ra
 246  0174              _L36:
 246  0174  0700     E  	mov a,ra
 246  0175  0080     E  	mov rb,a
 246  0176  1F00     E  	clr rc
 246  0177  0700     E  	mov a,rb
 246  0178  0200     R  	sub a,_RF_API_send_2[21]
 246  0179  0700     E  	mov a,rc
 246  017A  1200     R  	sbc a,_RF_API_send_2[22]
 246  017B  3B8A        	snz sc
 246  017C  2800     R  	jmp _L50
 247  017D              #line 247 "d:\sigfox-ep-example-holtek-bc68f2150-master-tb0\middleware\sigfox\manuf\rf_api.c"
 247  017D  1F00     E  	clr rf
 247  017E  3998        	snz [24].3
 247  017F  3000     E  	set rf.3
 247  0180  3598        	clr [24].3
 247  0181  0700     E  	mov a,rf
 247  0182  0598        	orm a,[24]
 248  0183              #line 248 "d:\sigfox-ep-example-holtek-bc68f2150-master-tb0\middleware\sigfox\manuf\rf_api.c"
 248  0183  2800     R  	jmp _L39
 248  0184              _L40:
 254  0184              #line 254 "d:\sigfox-ep-example-holtek-bc68f2150-master-tb0\middleware\sigfox\manuf\rf_api.c"
 254  0184  0700     E  	mov a,rb
 254  0185  0200     R  	sub a,_RF_API_send_2[12]
 254  0186  0080     E  	mov rb,a
 254  0187  0700     E  	mov a,rc
 254  0188  1200     R  	sbc a,_RF_API_send_2[13]
 254  0189  0080     E  	mov rc,a
 254  018A  0700     R  	mov a,_RF_API_send_2[6]
 254  018B  0380     E  	addm a,rb
 254  018C  0700     R  	mov a,_RF_API_send_2[7]
 254  018D  1380     E  	adcm a,rc
 254  018E  0F03        	mov a,3
 254  018F  0300     E  	add a,rb
 254  0190  0083        	mov mp,a
 254  0191  0F00        	mov a,0
 254  0192  1300     E  	adc a,rc
 254  0193  0084        	mov sbp,a
 254  0194  2800     R  	jmp _L47
 254  0195              _L50:
 257  0195              #line 257 "d:\sigfox-ep-example-holtek-bc68f2150-master-tb0\middleware\sigfox\manuf\rf_api.c"
 257  0195  3598        	clr [24].3
 257  0196              _L44:
"File: rf_api.c      Assembler  Version HGASM0202      Page 24

 258  0196              #line 258 "d:\sigfox-ep-example-holtek-bc68f2150-master-tb0\middleware\sigfox\manuf\rf_api.c"
 258  0196  3AAA        	snz [42].5
 258  0197  2800     R  	jmp _L44
 259  0198              #line 259 "d:\sigfox-ep-example-holtek-bc68f2150-master-tb0\middleware\sigfox\manuf\rf_api.c"
 259  0198  36AA        	clr [42].5
 260  0199              #line 260 "d:\sigfox-ep-example-holtek-bc68f2150-master-tb0\middleware\sigfox\manuf\rf_api.c"
 260  0199  35BA        	clr [58].3
 260  019A  0003        	ret
 260  019B              _RF_API_send endp
 260  019B              #line 260 "d:\sigfox-ep-example-holtek-bc68f2150-master-tb0\middleware\sigfox\manuf\rf_api.c"
 260  019B              #pragma debug scope 1 1
  52  019B              #line 52 "d:\sigfox-ep-example-holtek-bc68f2150-master-tb0\middleware\sigfox\manuf\rf_api.c"
  52  019B              public _const_table_ptr
  52  0000              @HCCINIT0_const_table_ptr .section 'data'
  52  0000  0002[       _const_table_ptr	db 2 dup(0)
            00
            ]
  52  0002              #pragma debug struct_end
  52  0002              #pragma debug struct_end
  52  0002              #pragma debug pointer 47 46 1
  52  0002              #pragma debug pointer 47 46 1
  52  0002              #pragma debug variable 47 1 _const_table_ptr "const_table_ptr"
  52  0002              
  52  0000              @HCCINIT .section 'data'
  52  0000              #pragma debug struct_end
  52  0000              #pragma debug struct_end
  52  0000              #pragma debug union_end
  52  0000              #pragma debug union_end
  52  0000              #pragma debug variable 49 1 ___pb "__pb" 1
  52  0000              #pragma debug struct_end
  52  0000              #pragma debug struct_end
  52  0000              #pragma debug union_end
  52  0000              #pragma debug union_end
  52  0000              #pragma debug variable 51 1 ___hxtc "__hxtc" 1
  52  0000              #pragma debug struct_end
  52  0000              #pragma debug struct_end
  52  0000              #pragma debug union_end
  52  0000              #pragma debug union_end
  52  0000              #pragma debug variable 53 1 ___rf_pwr "__rf_pwr" 1
  52  0000              #pragma debug struct_end
  52  0000              #pragma debug struct_end
  52  0000              #pragma debug union_end
  52  0000              #pragma debug union_end
  52  0000              #pragma debug variable 55 1 ___mfi0 "__mfi0" 1
  52  0000              #pragma debug struct_end
  52  0000              #pragma debug struct_end
  52  0000              #pragma debug union_end
  52  0000              #pragma debug union_end
  52  0000              #pragma debug variable 57 1 ___ctmc0 "__ctmc0" 1
  52  0000              #pragma debug struct_end
  52  0000              #pragma debug struct_end
  52  0000              #pragma debug union_end
  52  0000              #pragma debug union_end
  52  0000              #pragma debug variable 59 1 ___ctmc1 "__ctmc1" 1
  52  0000              #pragma debug variable 8 1 ___ctmal "__ctmal" 1
  52  0000              #pragma debug variable 8 1 ___ctmah "__ctmah" 1
  52  0000              #pragma debug struct_end
  52  0000              #pragma debug struct_end
  52  0000              #pragma debug union_end
  52  0000              #pragma debug union_end
"File: rf_api.c      Assembler  Version HGASM0202      Page 25

  52  0000              #pragma debug variable 61 1 ___rf_oper "__rf_oper" 1
  52  0000              #pragma debug struct_end
  52  0000              #pragma debug struct_end
  52  0000              #pragma debug union_end
  52  0000              #pragma debug union_end
  52  0000              #pragma debug variable 63 1 ___rf_clk1 "__rf_clk1" 1
  52  0000              #pragma debug struct_end
  52  0000              #pragma debug struct_end
  52  0000              #pragma debug union_end
  52  0000              #pragma debug union_end
  52  0000              #pragma debug variable 65 1 ___rf_clk2 "__rf_clk2" 1
  52  0000              #pragma debug struct_end
  52  0000              #pragma debug struct_end
  52  0000              #pragma debug union_end
  52  0000              #pragma debug union_end
  52  0000              #pragma debug variable 67 1 ___rf_fifo_ctrl4 "__rf_fifo_ctrl4" 1
  52  0000              #pragma debug struct_end
  52  0000              #pragma debug struct_end
  52  0000              #pragma debug union_end
  52  0000              #pragma debug union_end
  52  0000              #pragma debug variable 69 1 ___rf_opmod "__rf_opmod" 1
  52  0000              #pragma debug struct_end
  52  0000              #pragma debug struct_end
  52  0000              #pragma debug union_end
  52  0000              #pragma debug union_end
  52  0000              #pragma debug variable 71 1 ___rf_sx1 "__rf_sx1" 1
  52  0000              #pragma debug struct_end
  52  0000              #pragma debug struct_end
  52  0000              #pragma debug union_end
  52  0000              #pragma debug union_end
  52  0000              #pragma debug variable 73 1 ___rf_sx2 "__rf_sx2" 1
  52  0000              #pragma debug struct_end
  52  0000              #pragma debug struct_end
  52  0000              #pragma debug union_end
  52  0000              #pragma debug union_end
  52  0000              #pragma debug variable 75 1 ___rf_sx3 "__rf_sx3" 1
  52  0000              #pragma debug struct_end
  52  0000              #pragma debug struct_end
  52  0000              #pragma debug union_end
  52  0000              #pragma debug union_end
  52  0000              #pragma debug variable 77 1 ___rf_sx4 "__rf_sx4" 1
  52  0000              #pragma debug variable 8 1 ___rf_od1 "__rf_od1" 1
  52  0000              #pragma debug struct_end
  52  0000              #pragma debug struct_end
  52  0000              #pragma debug union_end
  52  0000              #pragma debug union_end
  52  0000              #pragma debug variable 79 1 ___rf_tx2 "__rf_tx2" 1
  52  0000              #pragma debug struct_end
  52  0000              #pragma debug struct_end
  52  0000              #pragma debug union_end
  52  0000              #pragma debug union_end
  52  0000              #pragma debug variable 81 1 ___rf_dfc_cal "__rf_dfc_cal" 1
  52  0000              #pragma debug variable 8 1 ___rf_ldo "__rf_ldo" 1
  52  0000              #pragma debug struct_end
  52  0000              #pragma debug struct_end
  52  0000              #pragma debug union_end
  52  0000              #pragma debug union_end
  52  0000              #pragma debug variable 83 1 ___rf_xo2 "__rf_xo2" 1
  52  0000              
  52  0000              ; output external variables
"File: rf_api.c      Assembler  Version HGASM0202      Page 26

  52  0000              extern _mcu_rf_rodata:near
  52  0000              extern _builtin_holtek_udivmodsi4_2:byte
  52  0000              extern _builtin_holtek_udivmodsi4:near
  52  0000              extern _builtin_holtek_mant1:byte
  52  0000              extern _builtin_holtek_mant12p:byte
  52  0000              extern _builtin_holtek_signs:byte
  52  0000              extern _builtin_holtek_ultod:near
  52  0000              extern _builtin_holtek_mant2:byte
  52  0000              extern _builtin_holtek_dtdiv:near
  52  0000              extern _builtin_holtek_itod:near
  52  0000              extern _builtin_holtek_dtsub:near
  52  0000              extern _builtin_holtek_dtmul:near
  52  0000              extern _builtin_holtek_dtol:near
  52  0000              
  52  0000              ; 
  52  0000              ; Generated by holtek-gcc v3.19, Thu May 23 14:41:50 2024
  52  0000              ; Rebuild 718
  52  0000              ; end of file


        0 Errors, 0