"File: sigfox_ep_frequency.c  Assembler  Version HGASM0202      Page 1


   1  0000              ; Generated by holtek-gcc v3.19, Thu May 23 14:41:52 2024
   2  0000              ; 
   3  0000              ; Configuration:
   4  0000              ;       with long instruction
   5  0000              ;       Single ROM, Multi-RAM
   6  0000              ;       bits_per_rom_unit:16
   7  0000              ;       with mp1
   8  0000              ;       with tbhp, address(0x9)
   9  0000              ;          Use tabrd-const
  10  0000              ;       
  11  0000              ; SFR address of long-instruction arch:
  12  0000              ;    mp0 = -1,1,0
  13  0000              ;    mp1 = 4,3,2
  14  0000              ;    mp2 = 14,13,12
  15  0000              ;    tbp = 9,7,8
  16  0000              ;    acc = 5
  17  0000              ;    pcl = 6
  18  0000              ;    status = 10
  19  0000              ;    bp = 11
  20  0000              ;    intc = 16
  21  0000              ;       
  22  0000              ;       
  23  0000              ; use 'tabrdc' instead of 'tabrd'
  24  0000              ;       
  25  0000              
  26  0000              #pragma translator "holtek-gcc 4.6.4" "3.19" "build 20130711"
  27  0000              ; Rebuild 718
  28  0000              
  29  0000              ir equ [2]
  30  0000              mp equ [3]
  31  0000              sbp equ [4]
  32  0000              acc equ [5]
  33  0000              bp equ [11]
  34  0000              tblp equ [7]
  35  0000              tbhp equ [9]
  36  0000              status equ [10]
  37  0000              c equ [10].0
  38  0000              ac equ [10].1
  39  0000              z equ [10].2
  40  0000              ov equ [10].3
  41  0000              cz equ [10].6
  42  0000              sc equ [10].7
  43  0000              intc equ [16]
  44  0000              
  45  0000              extern ra:byte
  46  0000              extern rb:byte
  47  0000              extern rc:byte
  48  0000              extern rd:byte
  49  0000              extern re:byte
  50  0000              extern rf:byte
  51  0000              extern rg:byte
  52  0000              extern rh:byte
  53  0000              extern _Crom2Prom:near
  54  0000              extern _Crom2PromNext:near
  55  0000              
  56  0000              RAMBANK 0 @BITDATASEC, @BITDATASEC1
  57  0000              @HCCINIT	.section 'data'
  58  0000              @HCCINIT0	.section 'data'
  59  0000              @BITDATASEC	 .section 'data'
"File: sigfox_ep_frequency.ASM  Assembler  Version HGASM0202      Page 2

  60  0000              @BITDATASEC1	 .section 'data'
  61  0000              
  62  0000              #pragma debug scope 1 1
  63  0000              #pragma debug scope 2 1

 184  0000              #line 184 "d:\sigfox-ep-example-holtek-bc68f2150-master-tb0\middleware\sigfox-ep-lib\src\core\sigfox_ep_frequency.c"
 184  0000              __compute_new_random_frequency .section 'code'
 184  0000              __compute_new_random_frequency proc
 184  0000  0018[           local __compute_new_random_frequency_2 db 24 dup(?)	; 2,22
            00
            ]
 184  0018              #pragma debug pointer 42 14 2
 184  0018              #pragma debug pointer 42 14 2
 184  0018              #pragma debug variable 42 2 __compute_new_random_frequency_2+0 "frequency_hz"
 199  0018              #line 199 "d:\sigfox-ep-example-holtek-bc68f2150-master-tb0\middleware\sigfox-ep-lib\src\core\sigfox_ep_frequency.c"
 199  0000  0700     R  	mov a,_sigfox_ep_frequency_ctx[4]
 199  0001  0080     R  	mov __compute_new_random_frequency_2[12],a
 199  0002  0700     R  	mov a,_sigfox_ep_frequency_ctx[5]
 199  0003  0080     R  	mov __compute_new_random_frequency_2[13],a
 199  0004  1F00     R  	clr __compute_new_random_frequency_2[14]
 199  0005  1F00     R  	clr __compute_new_random_frequency_2[15]
 203  0006              #line 203 "d:\sigfox-ep-example-holtek-bc68f2150-master-tb0\middleware\sigfox-ep-lib\src\core\sigfox_ep_frequency.c"
 203  0006  0700     R  	mov a,_sigfox_ep_frequency_ctx[0]
 203  0007  0080     R  	mov __compute_new_random_frequency_2[10],a
 203  0008  0700     R  	mov a,_sigfox_ep_frequency_ctx[1]
 203  0009  0080     R  	mov __compute_new_random_frequency_2[11],a
 203  000A  0F04        	mov a,4
 203  000B  0300     R  	add a,__compute_new_random_frequency_2[10]
 203  000C  0083        	mov mp,a
 203  000D  0F00        	mov a,0
 203  000E  1300     R  	adc a,__compute_new_random_frequency_2[11]
 203  000F  0084        	mov sbp,a
 203  0010  2000     E  	call _Crom2Prom
 203  0011  0080     E  	mov rb,a
 203  0012  2000     E  	call _Crom2PromNext
 203  0013  0080     E  	mov rc,a
 203  0014  0700     E  	mov a,rb
 203  0015  0080     R  	mov __compute_new_random_frequency_2[6],a
 203  0016  0700     E  	mov a,rc
 203  0017  0080     R  	mov __compute_new_random_frequency_2[7],a
 203  0018  1F00     R  	clr __compute_new_random_frequency_2[8]
 203  0019  1F00     R  	clr __compute_new_random_frequency_2[9]
 203  001A              #pragma debug scope 3 2
 203  001A              ;begin block, line: 203.-1
 203  001A              #pragma debug scope 4 3
 203  001A              ;begin block, line: 203.-1
 104  001A              #line 104 "d:\sigfox-ep-example-holtek-bc68f2150-master-tb0\middleware\sigfox-ep-lib\src\core\sigfox_ep_frequency.c"
 104  001A  340A        	clr c
 104  001B  1A80     E  	rlc rb
 104  001C  1A80     E  	rlc rc
 104  001D  0700     E  	mov a,rb
 104  001E  0080     E  	mov re,a
 104  001F  0700     E  	mov a,rc
 104  0020  0080     E  	mov rf,a
 104  0021  1F00     E  	clr rg
 104  0022  1F00     E  	clr rh
 104  0023  0F00        	mov a,0
 104  0024  0200     E  	sub a,re
 104  0025  0080     E  	mov ra,a
 104  0026  0FEE        	mov a,238
"File: sigfox_ep_frequency.c  Assembler  Version HGASM0202      Page 3

 104  0027  1200     E  	sbc a,rf
 104  0028  0080     E  	mov rb,a
 104  0029  0F02        	mov a,2
 104  002A  1200     E  	sbc a,rg
 104  002B  0080     E  	mov rc,a
 104  002C  0F00        	mov a,0
 104  002D  1200     E  	sbc a,rh
 104  002E  0080     E  	mov rd,a
 104  002F  0700     E  	mov a,ra
 104  0030  0080     R  	mov __compute_new_random_frequency_2[16],a
 104  0031  0700     E  	mov a,rb
 104  0032  0080     R  	mov __compute_new_random_frequency_2[17],a
 104  0033  0700     E  	mov a,rc
 104  0034  0080     R  	mov __compute_new_random_frequency_2[18],a
 104  0035  0700     E  	mov a,rd
 104  0036  0080     R  	mov __compute_new_random_frequency_2[19],a
 104  0037              #pragma debug scope 3 2
 104  0037              #pragma debug scope 2 1
 104  0037              #pragma debug scope 5 2
 104  0037              ;begin block, line: 104.-1
 104  0037              #pragma debug scope 6 5
 104  0037              ;begin block, line: 104.-1
 104  0037              #pragma debug scope 7 6
 104  0037              ;begin block, line: 104.-1
 104  0037              #pragma debug scope 8 7
 104  0037              ;begin block, line: 104.-1
 104  0037              #pragma debug variable 14 8 __compute_new_random_frequency_2+20 "baseband_frequency_max_hz"
 127  0037              #line 127 "d:\sigfox-ep-example-holtek-bc68f2150-master-tb0\middleware\sigfox-ep-lib\src\core\sigfox_ep_frequency.c"
 127  0037  0F00        	mov a,0
 127  0038  0200     R  	sub a,__compute_new_random_frequency_2[6]
 127  0039  0080     E  	mov ra,a
 127  003A  0FEE        	mov a,238
 127  003B  1200     R  	sbc a,__compute_new_random_frequency_2[7]
 127  003C  0080     E  	mov rb,a
 127  003D  0F02        	mov a,2
 127  003E  1200     R  	sbc a,__compute_new_random_frequency_2[8]
 127  003F  0080     E  	mov rc,a
 127  0040  0F00        	mov a,0
 127  0041  1200     R  	sbc a,__compute_new_random_frequency_2[9]
 127  0042  0080     E  	mov rd,a
 127  0043  0700     E  	mov a,ra
 127  0044  0080     R  	mov __compute_new_random_frequency_2[20],a
 127  0045  0700     E  	mov a,rb
 127  0046  0080     R  	mov __compute_new_random_frequency_2[21],a
 127  0047  0700     E  	mov a,rc
 127  0048  0080     R  	mov __compute_new_random_frequency_2[22],a
 127  0049  0700     E  	mov a,rd
 127  004A  0080     R  	mov __compute_new_random_frequency_2[23],a
 127  004B  0700     R  	mov a,_sigfox_ep_frequency_ctx[2]
 127  004C  0080     E  	mov rb,a
 127  004D  0700     R  	mov a,_sigfox_ep_frequency_ctx[3]
 127  004E  0080     E  	mov rc,a
 127  004F  0FE9        	mov a,-23
 127  0050  0080     R  	mov __compute_new_random_frequency_2[2],a
 127  0051  0F03        	mov a,3
 127  0052  0080     R  	mov __compute_new_random_frequency_2[3],a
 127  0053              _L7:
 127  0053              #pragma debug scope 7 6
 127  0053              #pragma debug scope 6 5
 127  0053              #pragma debug scope 5 2
"File: sigfox_ep_frequency.c  Assembler  Version HGASM0202      Page 4

 127  0053              #pragma debug scope 2 1
 199  0053              #line 199 "d:\sigfox-ep-example-holtek-bc68f2150-master-tb0\middleware\sigfox-ep-lib\src\core\sigfox_ep_frequency.c"
 199  0053  0700     E  	mov a,rb
 199  0054  0080     E  	mov rd,a
 199  0055  0700     E  	mov a,rc
 199  0056  0080     E  	mov re,a
 199  0057  1F00     E  	clr rf
 199  0058  1F00     E  	clr rg
 199  0059  0700     E  	mov a,rd
 199  005A  0080     E  	mov _builtin_holtek_mulsi3_2[0],a
 199  005B  0700     E  	mov a,re
 199  005C  0080     E  	mov _builtin_holtek_mulsi3_2[1],a
 199  005D  0700     E  	mov a,rf
 199  005E  0080     E  	mov _builtin_holtek_mulsi3_2[2],a
 199  005F  0700     E  	mov a,rg
 199  0060  0080     E  	mov _builtin_holtek_mulsi3_2[3],a
 199  0061  0F3D        	mov a,61
 199  0062  0080     E  	mov _builtin_holtek_mulsi3_2[4],a
 199  0063  0F00        	mov a,0
 199  0064  0080     E  	mov _builtin_holtek_mulsi3_2[5],a
 199  0065  0F00        	mov a,0
 199  0066  0080     E  	mov _builtin_holtek_mulsi3_2[6],a
 199  0067  0F00        	mov a,0
 199  0068  0080     E  	mov _builtin_holtek_mulsi3_2[7],a
 199  0069  2000     E  	call _builtin_holtek_mulsi3
 199  006A  0700     E  	mov a,_builtin_holtek_mulsi3_2[8]
 199  006B  0080     E  	mov rd,a
 199  006C  0700     E  	mov a,_builtin_holtek_mulsi3_2[9]
 199  006D  0080     E  	mov re,a
 199  006E  0700     E  	mov a,_builtin_holtek_mulsi3_2[10]
 199  006F  0080     E  	mov rf,a
 199  0070  0700     E  	mov a,_builtin_holtek_mulsi3_2[11]
 199  0071  0080     E  	mov rg,a
 199  0072  0700     R  	mov a,__compute_new_random_frequency_2[12]
 199  0073  0380     E  	addm a,rd
 199  0074  0700     R  	mov a,__compute_new_random_frequency_2[13]
 199  0075  1380     E  	adcm a,re
 199  0076  0700     R  	mov a,__compute_new_random_frequency_2[14]
 199  0077  1380     E  	adcm a,rf
 199  0078  0700     R  	mov a,__compute_new_random_frequency_2[15]
 199  0079  1380     E  	adcm a,rg
 200  007A              #line 200 "d:\sigfox-ep-example-holtek-bc68f2150-master-tb0\middleware\sigfox-ep-lib\src\core\sigfox_ep_frequency.c"
 200  007A  0700     E  	mov a,rd
 200  007B  0080     E  	mov rb,a
 200  007C  0700     E  	mov a,re
 200  007D  0080     E  	mov rc,a
 200  007E  0FFF        	mov a,255  
 200  007F  0680     E  	andm a,rb  
 200  0080  0F3F        	mov a,63  
 200  0081  0680     E  	andm a,rc
 204  0082              #line 204 "d:\sigfox-ep-example-holtek-bc68f2150-master-tb0\middleware\sigfox-ep-lib\src\core\sigfox_ep_frequency.c"
 204  0082  0700     E  	mov a,rb
 204  0083  0080     E  	mov rd,a
 204  0084  0700     E  	mov a,rc
 204  0085  0080     E  	mov re,a
 204  0086  1F00     E  	clr rf
 204  0087  1F00     E  	clr rg
 204  0088  0700     E  	mov a,rd
 204  0089  0080     E  	mov _builtin_holtek_mulsi3_2[0],a
 204  008A  0700     E  	mov a,re
"File: sigfox_ep_frequency.c  Assembler  Version HGASM0202      Page 5

 204  008B  0080     E  	mov _builtin_holtek_mulsi3_2[1],a
 204  008C  0700     E  	mov a,rf
 204  008D  0080     E  	mov _builtin_holtek_mulsi3_2[2],a
 204  008E  0700     E  	mov a,rg
 204  008F  0080     E  	mov _builtin_holtek_mulsi3_2[3],a
 204  0090  0700     R  	mov a,__compute_new_random_frequency_2[16]
 204  0091  0080     E  	mov _builtin_holtek_mulsi3_2[4],a
 204  0092  0700     R  	mov a,__compute_new_random_frequency_2[17]
 204  0093  0080     E  	mov _builtin_holtek_mulsi3_2[5],a
 204  0094  0700     R  	mov a,__compute_new_random_frequency_2[18]
 204  0095  0080     E  	mov _builtin_holtek_mulsi3_2[6],a
 204  0096  0700     R  	mov a,__compute_new_random_frequency_2[19]
 204  0097  0080     E  	mov _builtin_holtek_mulsi3_2[7],a
 204  0098  2000     E  	call _builtin_holtek_mulsi3
 204  0099  0700     E  	mov a,_builtin_holtek_mulsi3_2[8]
 204  009A  0080     E  	mov rd,a
 204  009B  0700     E  	mov a,_builtin_holtek_mulsi3_2[9]
 204  009C  0080     E  	mov re,a
 204  009D  0700     E  	mov a,_builtin_holtek_mulsi3_2[10]
 204  009E  0080     E  	mov rf,a
 204  009F  0700     E  	mov a,_builtin_holtek_mulsi3_2[11]
 204  00A0  0080     E  	mov rg,a
 204  00A1  1F00     E  	clr _builtin_holtek_udivmodsi4_2[12]
 204  00A2  0700     E  	mov a,rd  
 204  00A3  0080     E  	mov _builtin_holtek_udivmodsi4_2[0],a  
 204  00A4  0700     E  	mov a,re  
 204  00A5  0080     E  	mov _builtin_holtek_udivmodsi4_2[1],a
 204  00A6  0700     E  	mov a,rf  
 204  00A7  0080     E  	mov _builtin_holtek_udivmodsi4_2[2],a  
 204  00A8  0700     E  	mov a,rg  
 204  00A9  0080     E  	mov _builtin_holtek_udivmodsi4_2[3],a
 204  00AA  0FFF        	mov a,255  
 204  00AB  0080     E  	mov _builtin_holtek_udivmodsi4_2[4],a  
 204  00AC  0F3F        	mov a,63  
 204  00AD  0080     E  	mov _builtin_holtek_udivmodsi4_2[5],a
 204  00AE  1F00     E  	clr _builtin_holtek_udivmodsi4_2[6]
 204  00AF  1F00     E  	clr _builtin_holtek_udivmodsi4_2[7]
 204  00B0  2000     E  	call _builtin_holtek_udivmodsi4
 204  00B1  0700     E  	mov a,_builtin_holtek_udivmodsi4_2[0]  
 204  00B2  0080     E  	mov rd,a  
 204  00B3  0700     E  	mov a,_builtin_holtek_udivmodsi4_2[1]  
 204  00B4  0080     E  	mov re,a
 204  00B5  0700     E  	mov a,_builtin_holtek_udivmodsi4_2[2]  
 204  00B6  0080     E  	mov rf,a  
 204  00B7  0700     E  	mov a,_builtin_holtek_udivmodsi4_2[3]  
 204  00B8  0080     E  	mov rg,a
 204  00B9  0700     R  	mov a,__compute_new_random_frequency_2[6]
 204  00BA  0380     E  	addm a,rd
 204  00BB  0700     R  	mov a,__compute_new_random_frequency_2[7]
 204  00BC  1380     E  	adcm a,re
 204  00BD  0700     R  	mov a,__compute_new_random_frequency_2[8]
 204  00BE  1380     E  	adcm a,rf
 204  00BF  0700     R  	mov a,__compute_new_random_frequency_2[9]
 204  00C0  1380     E  	adcm a,rg
 204  00C1              #pragma debug scope 9 2
 204  00C1              ;begin block, line: 204.-1
 204  00C1              #pragma debug scope 10 9
 204  00C1              ;begin block, line: 204.-1
 143  00C1              #line 143 "d:\sigfox-ep-example-holtek-bc68f2150-master-tb0\middleware\sigfox-ep-lib\src\core\sigfox_ep_frequency.c"
 143  00C1  0700     E  	mov a,rd
"File: sigfox_ep_frequency.c  Assembler  Version HGASM0202      Page 6

 143  00C2  0200     R  	sub a,__compute_new_random_frequency_2[6]
 143  00C3  0700     E  	mov a,re
 143  00C4  1200     R  	sbc a,__compute_new_random_frequency_2[7]
 143  00C5  0700     E  	mov a,rf
 143  00C6  1200     R  	sbc a,__compute_new_random_frequency_2[8]
 143  00C7  0700     E  	mov a,rg
 143  00C8  1200     R  	sbc a,__compute_new_random_frequency_2[9]
 143  00C9  380A        	snz c
 143  00CA  2800     R  	jmp _L8
 143  00CB  0F01        	mov a,1
 143  00CC  0080     E  	mov ra,a
 143  00CD  0700     R  	mov a,__compute_new_random_frequency_2[20]
 143  00CE  0200     E  	sub a,rd
 143  00CF  0700     R  	mov a,__compute_new_random_frequency_2[21]
 143  00D0  1200     E  	sbc a,re
 143  00D1  0700     R  	mov a,__compute_new_random_frequency_2[22]
 143  00D2  1200     E  	sbc a,rf
 143  00D3  0700     R  	mov a,__compute_new_random_frequency_2[23]
 143  00D4  1200     E  	sbc a,rg
 143  00D5  3C0A        	sz c
 143  00D6  2800     R  	jmp _L2
 143  00D7  1F00     E  	clr ra
 143  00D8  2800     R  	jmp _L2
 143  00D9              _L8:
 143  00D9  1F00     E  	clr ra
 143  00DA              _L2:
 143  00DA  0FFF        	mov a,255
 143  00DB  0380     R  	addm a,__compute_new_random_frequency_2[2]
 143  00DC  0FFF        	mov a,255
 143  00DD  1380     R  	adcm a,__compute_new_random_frequency_2[3]
 143  00DE              #pragma debug scope 9 2
 143  00DE              #pragma debug scope 2 1
 222  00DE              #line 222 "d:\sigfox-ep-example-holtek-bc68f2150-master-tb0\middleware\sigfox-ep-lib\src\core\sigfox_ep_frequency.c"
 222  00DE  0700     R  	mov a,__compute_new_random_frequency_2[2]
 222  00DF  0500     R  	or a,__compute_new_random_frequency_2[3]
 222  00E0  390A        	snz z
 222  00E1  2800     R  	jmp _L4
 222  00E2  0700     E  	mov a,rb
 222  00E3  0080     R  	mov _sigfox_ep_frequency_ctx[2],a
 222  00E4  0700     E  	mov a,rc
 222  00E5  0080     R  	mov _sigfox_ep_frequency_ctx[3],a
 222  00E6  2800     R  	jmp _L1
 222  00E7              _L4:
 226  00E7              #line 226 "d:\sigfox-ep-example-holtek-bc68f2150-master-tb0\middleware\sigfox-ep-lib\src\core\sigfox_ep_frequency.c"
 226  00E7  1E00     E  	snz ra
 226  00E8  2800     R  	jmp _L7
 226  00E9  0700     E  	mov a,rb
 226  00EA  0080     R  	mov _sigfox_ep_frequency_ctx[2],a
 226  00EB  0700     E  	mov a,rc
 226  00EC  0080     R  	mov _sigfox_ep_frequency_ctx[3],a
 232  00ED              #line 232 "d:\sigfox-ep-example-holtek-bc68f2150-master-tb0\middleware\sigfox-ep-lib\src\core\sigfox_ep_frequency.c"
 232  00ED  0700     R  	mov a,__compute_new_random_frequency_2[10]
 232  00EE  0083        	mov mp,a
 232  00EF  0700     R  	mov a,__compute_new_random_frequency_2[11]
 232  00F0  0084        	mov sbp,a
 232  00F1  2000     E  	call _Crom2Prom
 232  00F2  0080     R  	mov __compute_new_random_frequency_2[2],a
 232  00F3  2000     E  	call _Crom2PromNext
 232  00F4  0080     R  	mov __compute_new_random_frequency_2[3],a
 232  00F5  2000     E  	call _Crom2PromNext
"File: sigfox_ep_frequency.c  Assembler  Version HGASM0202      Page 7

 232  00F6  0080     R  	mov __compute_new_random_frequency_2[4],a
 232  00F7  2000     E  	call _Crom2PromNext
 232  00F8  0080     R  	mov __compute_new_random_frequency_2[5],a
 232  00F9  0F00        	mov a,0
 232  00FA  0380     R  	addm a,__compute_new_random_frequency_2[2]
 232  00FB  0F89        	mov a,137
 232  00FC  1380     R  	adcm a,__compute_new_random_frequency_2[3]
 232  00FD  0FFE        	mov a,254
 232  00FE  1380     R  	adcm a,__compute_new_random_frequency_2[4]
 232  00FF  0FFF        	mov a,255
 232  0100  1380     R  	adcm a,__compute_new_random_frequency_2[5]
 232  0101  0700     R  	mov a,__compute_new_random_frequency_2[2]
 232  0102  0380     E  	addm a,rd
 232  0103  0700     R  	mov a,__compute_new_random_frequency_2[3]
 232  0104  1380     E  	adcm a,re
 232  0105  0700     R  	mov a,__compute_new_random_frequency_2[4]
 232  0106  1380     E  	adcm a,rf
 232  0107  0700     R  	mov a,__compute_new_random_frequency_2[5]
 232  0108  1380     E  	adcm a,rg
 232  0109  0700     R  	mov a,__compute_new_random_frequency_2[0]
 232  010A  0083        	mov mp,a
 232  010B  0700     R  	mov a,__compute_new_random_frequency_2[1]
 232  010C  0084        	mov sbp,a
 232  010D  0700     E  	mov a,rd
 232  010E  0082        	mov ir,a
 232  010F  1483        	inc mp
 232  0110  0700     E  	mov a,re
 232  0111  0082        	mov ir,a
 232  0112  1483        	inc mp
 232  0113  0700     E  	mov a,rf
 232  0114  0082        	mov ir,a
 232  0115  1483        	inc mp
 232  0116  0700     E  	mov a,rg
 232  0117  0082        	mov ir,a
 232  0118              _L5:
 232  0118              _L1:
 232  0118  0003        	ret
 232  0119              __compute_new_random_frequency endp
 232  0119              #line 232 "d:\sigfox-ep-example-holtek-bc68f2150-master-tb0\middleware\sigfox-ep-lib\src\core\sigfox_ep_frequency.c"
 232  0119              #pragma debug scope 1 1
 232  0119              public _SIGFOX_EP_FREQUENCY_init
 232  0119              #pragma debug scope 11 1
 267  0119              #line 267 "d:\sigfox-ep-example-holtek-bc68f2150-master-tb0\middleware\sigfox-ep-lib\src\core\sigfox_ep_frequency.c"
 267  0000              _SIGFOX_EP_FREQUENCY_init .section 'code'
 267  0000              _SIGFOX_EP_FREQUENCY_init proc
 267  0000              public _SIGFOX_EP_FREQUENCY_init_2
 267  0000  0006[           local _SIGFOX_EP_FREQUENCY_init_2 db 6 dup(?)	; 6,0
            00
            ]
 267  0006              #pragma debug struct_end
 267  0006              #pragma debug struct_end
 267  0006              #pragma debug struct_end
 267  0006              #pragma debug struct_end
 267  0006              #pragma debug pointer 45 44 11
 267  0006              #pragma debug pointer 45 44 11
 267  0006              #pragma debug variable 45 11 _SIGFOX_EP_FREQUENCY_init_2+0 "rc"
 267  0006              #pragma debug pointer 46 8 11
 267  0006              #pragma debug pointer 46 8 11
 267  0006              #pragma debug variable 46 11 _SIGFOX_EP_FREQUENCY_init_2+2 "ep_id"
 267  0006              #pragma debug variable 10 11 _SIGFOX_EP_FREQUENCY_init_2+4 "last_random_value"
"File: sigfox_ep_frequency.c  Assembler  Version HGASM0202      Page 8

 283  0006              #line 283 "d:\sigfox-ep-example-holtek-bc68f2150-master-tb0\middleware\sigfox-ep-lib\src\core\sigfox_ep_frequency.c"
 283  0000  0700     R  	mov a,_SIGFOX_EP_FREQUENCY_init_2[0]
 283  0001  0080     R  	mov _sigfox_ep_frequency_ctx[0],a
 283  0002  0700     R  	mov a,_SIGFOX_EP_FREQUENCY_init_2[1]
 283  0003  0080     R  	mov _sigfox_ep_frequency_ctx[1],a
 284  0004              #line 284 "d:\sigfox-ep-example-holtek-bc68f2150-master-tb0\middleware\sigfox-ep-lib\src\core\sigfox_ep_frequency.c"
 284  0004  0700     R  	mov a,_SIGFOX_EP_FREQUENCY_init_2[4]
 284  0005  0080     R  	mov _sigfox_ep_frequency_ctx[2],a
 284  0006  0700     R  	mov a,_SIGFOX_EP_FREQUENCY_init_2[5]
 284  0007  0080     R  	mov _sigfox_ep_frequency_ctx[3],a
 286  0008              #line 286 "d:\sigfox-ep-example-holtek-bc68f2150-master-tb0\middleware\sigfox-ep-lib\src\core\sigfox_ep_frequency.c"
 286  0008  0700     R  	mov a,_SIGFOX_EP_FREQUENCY_init_2[2]
 286  0009  0080     E  	mov rd,a
 286  000A  0700     R  	mov a,_SIGFOX_EP_FREQUENCY_init_2[3]
 286  000B  0080     E  	mov re,a
 286  000C  0F02        	mov a,2
 286  000D  0300     E  	add a,rd
 286  000E  0083        	mov mp,a
 286  000F  0F00        	mov a,0
 286  0010  1300     E  	adc a,re
 286  0011  0084        	mov sbp,a
 286  0012  2000     E  	call _Crom2Prom
 286  0013  0080     E  	mov rc,a
 286  0014  1F00     E  	clr rb
 286  0015  0F03        	mov a,3
 286  0016  0300     E  	add a,rd
 286  0017  0083        	mov mp,a
 286  0018  0F00        	mov a,0
 286  0019  1300     E  	adc a,re
 286  001A  0084        	mov sbp,a
 286  001B  2000     E  	call _Crom2Prom
 286  001C  0080     E  	mov ra,a
 286  001D  0700     E  	mov a,ra
 286  001E  0580     E  	orm a,rb
 289  001F              #line 289 "d:\sigfox-ep-example-holtek-bc68f2150-master-tb0\middleware\sigfox-ep-lib\src\core\sigfox_ep_frequency.c"
 289  001F  1480     E  	inc rb
 289  0020  3D0A        	sz z
 289  0021  1480     E  	inc rc
 289  0022  0700     E  	mov a,rb  
 289  0023  0080     E  	mov _builtin_holtek_mulhi3_2[0],a  
 289  0024  0700     E  	mov a,rc  
 289  0025  0080     E  	mov _builtin_holtek_mulhi3_2[1],a
 289  0026  0F3D        	mov a,61  
 289  0027  0080     E  	mov _builtin_holtek_mulhi3_2[2],a  
 289  0028  1F00     E  	clr _builtin_holtek_mulhi3_2[3]
 289  0029  2000     E  	call _builtin_holtek_mulhi3
 289  002A  0700     E  	mov a,_builtin_holtek_mulhi3_2[4]  
 289  002B  0080     E  	mov rb,a  
 289  002C  0700     E  	mov a,_builtin_holtek_mulhi3_2[5]  
 289  002D  0080     E  	mov rc,a
 289  002E  0700     E  	mov a,rb
 289  002F  0080     E  	mov rd,a
 289  0030  0700     E  	mov a,rc
 289  0031  0080     E  	mov re,a
 289  0032  0FFF        	mov a,255  
 289  0033  0680     E  	andm a,rd  
 289  0034  0F3F        	mov a,63  
 289  0035  0680     E  	andm a,re
 291  0036              #line 291 "d:\sigfox-ep-example-holtek-bc68f2150-master-tb0\middleware\sigfox-ep-lib\src\core\sigfox_ep_frequency.c"
 291  0036  3800     E  	snz rb.0
"File: sigfox_ep_frequency.c  Assembler  Version HGASM0202      Page 9

 291  0037  2800     R  	jmp _L11
 289  0038              #line 289 "d:\sigfox-ep-example-holtek-bc68f2150-master-tb0\middleware\sigfox-ep-lib\src\core\sigfox_ep_frequency.c"
 289  0038  0700     E  	mov a,rd
 289  0039  0080     R  	mov _sigfox_ep_frequency_ctx[4],a
 289  003A  0700     E  	mov a,re
 289  003B  0080     R  	mov _sigfox_ep_frequency_ctx[5],a
 289  003C  2800     R  	jmp _L10
 289  003D              _L11:
 292  003D              #line 292 "d:\sigfox-ep-example-holtek-bc68f2150-master-tb0\middleware\sigfox-ep-lib\src\core\sigfox_ep_frequency.c"
 292  003D  0F01        	mov a,1
 292  003E  0300     E  	add a,rd
 292  003F  0080     R  	mov _sigfox_ep_frequency_ctx[4],a
 292  0040  0F00        	mov a,0
 292  0041  1300     E  	adc a,re
 292  0042  0080     R  	mov _sigfox_ep_frequency_ctx[5],a
 292  0043              _L10:
 292  0043  0003        	ret
 292  0044              _SIGFOX_EP_FREQUENCY_init endp
 292  0044              #line 292 "d:\sigfox-ep-example-holtek-bc68f2150-master-tb0\middleware\sigfox-ep-lib\src\core\sigfox_ep_frequency.c"
 292  0044              #pragma debug scope 1 1
 292  0044              public _SIGFOX_EP_FREQUENCY_compute_uplink
 292  0044              #pragma debug scope 12 1
 316  0044              #line 316 "d:\sigfox-ep-example-holtek-bc68f2150-master-tb0\middleware\sigfox-ep-lib\src\core\sigfox_ep_frequency.c"
 316  0000              _SIGFOX_EP_FREQUENCY_compute_uplink .section 'code'
 316  0000              _SIGFOX_EP_FREQUENCY_compute_uplink proc
 316  0000              public _SIGFOX_EP_FREQUENCY_compute_uplink_2
 316  0000  0005[           local _SIGFOX_EP_FREQUENCY_compute_uplink_2 db 5 dup(?)	; 4,1
            00
            ]
 316  0005              #pragma debug struct_end
 316  0005              #pragma debug struct_end
 316  0005              #pragma debug pointer 48 47 12
 316  0005              #pragma debug pointer 48 47 12
 316  0005              #pragma debug variable 48 12 _SIGFOX_EP_FREQUENCY_compute_uplink_2+0 "input"
 316  0005              #pragma debug pointer 49 14 12
 316  0005              #pragma debug pointer 49 14 12
 316  0005              #pragma debug variable 49 12 _SIGFOX_EP_FREQUENCY_compute_uplink_2+2 "ul_frequency_hz"
 349  0005              #line 349 "d:\sigfox-ep-example-holtek-bc68f2150-master-tb0\middleware\sigfox-ep-lib\src\core\sigfox_ep_frequency.c"
 349  0000  0700     R  	mov a,_SIGFOX_EP_FREQUENCY_compute_uplink_2[0]
 349  0001  0080     R  	mov _sigfox_ep_frequency_ctx[6],a
 349  0002  0700     R  	mov a,_SIGFOX_EP_FREQUENCY_compute_uplink_2[1]
 349  0003  0080     R  	mov _sigfox_ep_frequency_ctx[7],a
 364  0004              #line 364 "d:\sigfox-ep-example-holtek-bc68f2150-master-tb0\middleware\sigfox-ep-lib\src\core\sigfox_ep_frequency.c"
 364  0004  0700     R  	mov a,_SIGFOX_EP_FREQUENCY_compute_uplink_2[0]
 364  0005  0083        	mov mp,a
 364  0006  0700     R  	mov a,_SIGFOX_EP_FREQUENCY_compute_uplink_2[1]
 364  0007  0084        	mov sbp,a
 364  0008  2000     E  	call _Crom2Prom
 364  0009  0080     R  	mov _SIGFOX_EP_FREQUENCY_compute_uplink_2[4],a
 364  000A  0700     R  	mov a,_SIGFOX_EP_FREQUENCY_compute_uplink_2[4]
 364  000B  0A00        	sub a,0
 364  000C  3D0A        	sz z
 364  000D  2800     R  	jmp _L17
 364  000E  0A01        	sub a,(1)-(0)
 364  000F  3D0A        	sz z
 364  0010  2800     R  	jmp _L17
 364  0011              #line 364 "d:\sigfox-ep-example-holtek-bc68f2150-master-tb0\middleware\sigfox-ep-lib\src\core\sigfox_ep_frequency.c"
 364  0011  0700     R  	mov a,_SIGFOX_EP_FREQUENCY_compute_uplink_2[4]
 364  0012  0A02        	sub a,2
 364  0013  390A        	snz z
"File: sigfox_ep_frequency.c  Assembler  Version HGASM0202      Page 10

 364  0014  2800     R  	jmp _L13
 364  0015              _L17:
 408  0015              #line 408 "d:\sigfox-ep-example-holtek-bc68f2150-master-tb0\middleware\sigfox-ep-lib\src\core\sigfox_ep_frequency.c"
 408  0015  0700     R  	mov a,_SIGFOX_EP_FREQUENCY_compute_uplink_2[2]
 408  0016  0080     R  	mov __compute_new_random_frequency_2[0],a
 408  0017  0700     R  	mov a,_SIGFOX_EP_FREQUENCY_compute_uplink_2[3]
 408  0018  0080     R  	mov __compute_new_random_frequency_2[1],a
 408  0019  2000     R  	call __compute_new_random_frequency
 408  001A              _L14:
 408  001A              _L13:
 408  001A  0003        	ret
 408  001B              _SIGFOX_EP_FREQUENCY_compute_uplink endp
 408  001B              #line 408 "d:\sigfox-ep-example-holtek-bc68f2150-master-tb0\middleware\sigfox-ep-lib\src\core\sigfox_ep_frequency.c"
 408  001B              #pragma debug scope 1 1
 408  001B              public _SIGFOX_EP_FREQUENCY_get_random_value
 408  001B              #pragma debug scope 13 1
 457  001B              #line 457 "d:\sigfox-ep-example-holtek-bc68f2150-master-tb0\middleware\sigfox-ep-lib\src\core\sigfox_ep_frequency.c"
 457  0000              _SIGFOX_EP_FREQUENCY_get_random_value .section 'code'
 457  0000              _SIGFOX_EP_FREQUENCY_get_random_value proc
 457  0000              public _SIGFOX_EP_FREQUENCY_get_random_value_2
 457  0000  0002[           local _SIGFOX_EP_FREQUENCY_get_random_value_2 db 2 dup(?)	; 2,0
            00
            ]
 457  0002              #pragma debug pointer 50 12 13
 457  0002              #pragma debug pointer 50 12 13
 457  0002              #pragma debug variable 50 13 _SIGFOX_EP_FREQUENCY_get_random_value_2+0 "random_value"
 467  0002              #line 467 "d:\sigfox-ep-example-holtek-bc68f2150-master-tb0\middleware\sigfox-ep-lib\src\core\sigfox_ep_frequency.c"
 467  0000  0700     R  	mov a,_SIGFOX_EP_FREQUENCY_get_random_value_2[0]
 467  0001  0083        	mov mp,a
 467  0002  0700     R  	mov a,_SIGFOX_EP_FREQUENCY_get_random_value_2[1]
 467  0003  0084        	mov sbp,a
 467  0004  0700     R  	mov a,_sigfox_ep_frequency_ctx[2]
 467  0005  0082        	mov ir,a
 467  0006  1483        	inc mp
 467  0007  0700     R  	mov a,_sigfox_ep_frequency_ctx[3]
 467  0008  0082        	mov ir,a
 467  0009  0003        	ret
 467  000A              _SIGFOX_EP_FREQUENCY_get_random_value endp
 467  000A              #line 467 "d:\sigfox-ep-example-holtek-bc68f2150-master-tb0\middleware\sigfox-ep-lib\src\core\sigfox_ep_frequency.c"
 467  000A              #pragma debug scope 1 1
 467  0000              @HCCINIT0_sigfox_ep_frequency_ctx .section 'data'
 467  0000  0008[       _sigfox_ep_frequency_ctx	db 8 dup(0)
            00
            ]
 467  0008              #pragma debug struct_end
 467  0008              #pragma debug struct_end
 467  0008              #pragma debug struct_end
 467  0008              #pragma debug struct_end
 467  0008              #pragma debug struct_end
 467  0008              #pragma debug struct_end
 467  0008              #pragma debug struct_end
 467  0008              #pragma debug struct_end
 467  0008              #pragma debug variable 54 1 _sigfox_ep_frequency_ctx "sigfox_ep_frequency_ctx"
 467  0008              
 467  0000              @HCCINIT .section 'data'
 467  0000              extern _builtin_holtek_mulsi3_2:byte
 467  0000              extern _builtin_holtek_mulsi3:near
 467  0000              extern _builtin_holtek_udivmodsi4_2:byte
 467  0000              extern _builtin_holtek_udivmodsi4:near
 467  0000              extern _builtin_holtek_mulhi3_2:byte
"File: sigfox_ep_frequency.c  Assembler  Version HGASM0202      Page 11

 467  0000              extern _builtin_holtek_mulhi3:near
 467  0000              
 467  0000              ; 
 467  0000              ; Generated by holtek-gcc v3.19, Thu May 23 14:41:52 2024
 467  0000              ; Rebuild 718
 467  0000              ; end of file


        0 Errors, 0