"File: sigfox_ep_api.c  Assembler  Version HGASM0202      Page 1


   1  0000              ; Generated by holtek-gcc v3.19, Thu May 23 14:41:51 2024
   2  0000              ; 
   3  0000              ; Configuration:
   4  0000              ;       with long instruction
   5  0000              ;       Single ROM, Multi-RAM
   6  0000              ;       bits_per_rom_unit:16
   7  0000              ;       with mp1
   8  0000              ;       with tbhp, address(0x9)
   9  0000              ;          Use tabrd-const
  10  0000              ;       
  11  0000              ; SFR address of long-instruction arch:
  12  0000              ;    mp0 = -1,1,0
  13  0000              ;    mp1 = 4,3,2
  14  0000              ;    mp2 = 14,13,12
  15  0000              ;    tbp = 9,7,8
  16  0000              ;    acc = 5
  17  0000              ;    pcl = 6
  18  0000              ;    status = 10
  19  0000              ;    bp = 11
  20  0000              ;    intc = 16
  21  0000              ;       
  22  0000              ;       
  23  0000              ; use 'tabrdc' instead of 'tabrd'
  24  0000              ;       
  25  0000              
  26  0000              #pragma translator "holtek-gcc 4.6.4" "3.19" "build 20130711"
  27  0000              ; Rebuild 718
  28  0000              
  29  0000              ir equ [2]
  30  0000              mp equ [3]
  31  0000              sbp equ [4]
  32  0000              acc equ [5]
  33  0000              bp equ [11]
  34  0000              tblp equ [7]
  35  0000              tbhp equ [9]
  36  0000              status equ [10]
  37  0000              c equ [10].0
  38  0000              ac equ [10].1
  39  0000              z equ [10].2
  40  0000              ov equ [10].3
  41  0000              cz equ [10].6
  42  0000              sc equ [10].7
  43  0000              intc equ [16]
  44  0000              
  45  0000              extern ra:byte
  46  0000              extern rb:byte
  47  0000              extern rc:byte
  48  0000              extern rd:byte
  49  0000              extern re:byte
  50  0000              extern rf:byte
  51  0000              extern rg:byte
  52  0000              extern rh:byte
  53  0000              extern _Crom2Prom:near
  54  0000              extern _Crom2PromNext:near
  55  0000              
  56  0000              RAMBANK 0 @BITDATASEC, @BITDATASEC1
  57  0000              @HCCINIT	.section 'data'
  58  0000              @HCCINIT0	.section 'data'
  59  0000              @BITDATASEC	 .section 'data'
"File: sigfox_ep_api.ASM  Assembler  Version HGASM0202      Page 2

  60  0000              @BITDATASEC1	 .section 'data'
  61  0000              
  62  0000              #pragma debug scope 1 1
  63  0000              #pragma debug scope 2 1

 791  0000              #line 791 "d:\sigfox-ep-example-holtek-bc68f2150-master-tb0\middleware\sigfox-ep-lib\src\sigfox_ep_api.c"
 791  0000              __is_last_frame_of_uplink_sequence .section 'code'
 791  0000              __is_last_frame_of_uplink_sequence proc
 797  0000              #line 797 "d:\sigfox-ep-example-holtek-bc68f2150-master-tb0\middleware\sigfox-ep-lib\src\sigfox_ep_api.c"
 797  0000  0F01        	mov a,1
 797  0001  0300     R  	add a,_sigfox_ep_api_ctx[20]
 797  0002  0083        	mov mp,a
 797  0003  0F00        	mov a,0
 797  0004  1300     R  	adc a,_sigfox_ep_api_ctx[21]
 797  0005  0084        	mov sbp,a
 797  0006  2000     E  	call _Crom2Prom
 797  0007  0080     E  	mov rb,a
 797  0008  1580     E  	dec rb
 797  0009  0F01        	mov a,1
 797  000A  0080     E  	mov ra,a
 797  000B  0700     R  	mov a,_sigfox_ep_api_ctx[51]
 797  000C  0200     E  	sub a,rb
 797  000D  3C0A        	sz c
 797  000E  2800     R  	jmp _L2
 797  000F              #line 797 "d:\sigfox-ep-example-holtek-bc68f2150-master-tb0\middleware\sigfox-ep-lib\src\sigfox_ep_api.c"
 797  000F  1F00     E  	clr ra
 797  0010              _L2:
 802  0010              #line 802 "d:\sigfox-ep-example-holtek-bc68f2150-master-tb0\middleware\sigfox-ep-lib\src\sigfox_ep_api.c"
 802  0010  0700     E  	mov a,ra
 802  0011  0003        	ret
 802  0012              __is_last_frame_of_uplink_sequence endp
 802  0012              #line 802 "d:\sigfox-ep-example-holtek-bc68f2150-master-tb0\middleware\sigfox-ep-lib\src\sigfox_ep_api.c"
 802  0012              #pragma debug scope 1 1
 802  0012              #pragma debug scope 3 1
1414  0012              #line 1414 "d:\sigfox-ep-example-holtek-bc68f2150-master-tb0\middleware\sigfox-ep-lib\src\sigfox_ep_api.c"
1414  0000              __start_transmission .section 'code'
1414  0000              __start_transmission proc
1414  0000  000C[           local __start_transmission_2 db 12 dup(?)	; 0,12
            00
            ]
1427  000C              #line 1427 "d:\sigfox-ep-example-holtek-bc68f2150-master-tb0\middleware\sigfox-ep-lib\src\sigfox_ep_api.c"
1427  0000  3400     R  	clr _sigfox_ep_api_ctx[9].0
1427  0001              #pragma debug scope 4 3
1427  0001              ;begin block, line: 1427.-1
1427  0001              #pragma debug scope 5 4
1427  0001              ;begin block, line: 1427.-1
1055  0001              #line 1055 "d:\sigfox-ep-example-holtek-bc68f2150-master-tb0\middleware\sigfox-ep-lib\src\sigfox_ep_api.c"
1055  0001  0700     R  	mov a,_sigfox_ep_api_ctx[8]
1055  0002  0E30        	and a,48
1055  0003  0080     E  	mov ra,a
1055  0004  1080     E  	sz ra
1055  0005  2800     R  	jmp _L5
1055  0006              #pragma debug scope 6 5
1055  0006              ;begin block, line: 1055.-1
1055  0006              #pragma debug scope 7 6
1055  0006              ;begin block, line: 1055.-1
1055  0006              #pragma debug struct_end
1055  0006              #pragma debug struct_end
1055  0006              #pragma debug struct_end
1055  0006              #pragma debug struct_end
"File: sigfox_ep_api.c  Assembler  Version HGASM0202      Page 3

1055  0006              #pragma debug variable 43 7 __start_transmission_2+0 "bitstream_parameters"
1055  0006              #pragma debug scope 8 7
1055  0006              ;begin block, line: 1055.-1
1055  0006              #pragma debug scope 9 8
1055  0006              ;begin block, line: 1055.-1
 835  0006              #line 835 "d:\sigfox-ep-example-holtek-bc68f2150-master-tb0\middleware\sigfox-ep-lib\src\sigfox_ep_api.c"
 835  0006  0F00     R  	mov a,low (offset _sigfox_ep_api_ctx+2)
 835  0007  0080     R  	mov __start_transmission_2[0],a
 835  0008  0F00     R  	mov a,high (offset _sigfox_ep_api_ctx+2)
 835  0009  0080     R  	mov __start_transmission_2[1],a
 837  000A              #line 837 "d:\sigfox-ep-example-holtek-bc68f2150-master-tb0\middleware\sigfox-ep-lib\src\sigfox_ep_api.c"
 837  000A  0700     R  	mov a,_sigfox_ep_api_ctx[12]
 837  000B  0080     R  	mov __start_transmission_2[2],a
 837  000C  0700     R  	mov a,_sigfox_ep_api_ctx[13]
 837  000D  0080     R  	mov __start_transmission_2[3],a
 844  000E              #line 844 "d:\sigfox-ep-example-holtek-bc68f2150-master-tb0\middleware\sigfox-ep-lib\src\sigfox_ep_api.c"
 844  000E  0700     R  	mov a,_sigfox_ep_api_ctx[51]
 844  000F  0080     R  	mov __start_transmission_2[4],a
 844  0010              #pragma debug scope 8 7
 844  0010              #pragma debug scope 7 6
 947  0010              #line 947 "d:\sigfox-ep-example-holtek-bc68f2150-master-tb0\middleware\sigfox-ep-lib\src\sigfox_ep_api.c"
 947  0010  0700     R  	mov a,_sigfox_ep_api_ctx[22]
 947  0011  0080     E  	mov rb,a
 947  0012  0700     R  	mov a,_sigfox_ep_api_ctx[23]
 947  0013  0080     E  	mov rc,a
 947  0014  0F04        	mov a,4
 947  0015  0300     E  	add a,rb
 947  0016  0083        	mov mp,a
 947  0017  0F00        	mov a,0
 947  0018  1300     E  	adc a,rc
 947  0019  0084        	mov sbp,a
 947  001A  2000     E  	call _Crom2Prom
 947  001B  0080     R  	mov __start_transmission_2[5],a
 949  001C              #line 949 "d:\sigfox-ep-example-holtek-bc68f2150-master-tb0\middleware\sigfox-ep-lib\src\sigfox_ep_api.c"
 949  001C  0F05        	mov a,5
 949  001D  0300     E  	add a,rb
 949  001E  0083        	mov mp,a
 949  001F  0F00        	mov a,0
 949  0020  1300     E  	adc a,rc
 949  0021  0084        	mov sbp,a
 949  0022  2000     E  	call _Crom2Prom
 949  0023  0080     R  	mov __start_transmission_2[6],a
 949  0024  2000     E  	call _Crom2PromNext
 949  0025  0080     R  	mov __start_transmission_2[7],a
 952  0026              #line 952 "d:\sigfox-ep-example-holtek-bc68f2150-master-tb0\middleware\sigfox-ep-lib\src\sigfox_ep_api.c"
 952  0026  0F07        	mov a,7
 952  0027  0300     E  	add a,rb
 952  0028  0083        	mov mp,a
 952  0029  0F00        	mov a,0
 952  002A  1300     E  	adc a,rc
 952  002B  0084        	mov sbp,a
 952  002C  2000     E  	call _Crom2Prom
 952  002D  0080     R  	mov __start_transmission_2[8],a
 962  002E              #line 962 "d:\sigfox-ep-example-holtek-bc68f2150-master-tb0\middleware\sigfox-ep-lib\src\sigfox_ep_api.c"
 962  002E  0F00     R  	mov a,low (offset _sigfox_ep_api_ctx+50)
 962  002F  0080     E  	mov _SIGFOX_EP_BITSTREAM_build_application_frame_2[4],a
 962  0030  0F00     R  	mov a,high (offset _sigfox_ep_api_ctx+50)
 962  0031  0080     E  	mov _SIGFOX_EP_BITSTREAM_build_application_frame_2[5],a
 962  0032  0F00     R  	mov a,low (offset _sigfox_ep_api_ctx+24)
 962  0033  0080     E  	mov _SIGFOX_EP_BITSTREAM_build_application_frame_2[2],a
"File: sigfox_ep_api.c  Assembler  Version HGASM0202      Page 4

 962  0034  0F00     R  	mov a,high (offset _sigfox_ep_api_ctx+24)
 962  0035  0080     E  	mov _SIGFOX_EP_BITSTREAM_build_application_frame_2[3],a
 962  0036  0F00     R  	mov a,low offset __start_transmission_2
 962  0037  0080     E  	mov _SIGFOX_EP_BITSTREAM_build_application_frame_2[0],a
 962  0038  0F00     R  	mov a,high offset __start_transmission_2
 962  0039  0080     E  	mov _SIGFOX_EP_BITSTREAM_build_application_frame_2[1],a
 962  003A  2000     E  	call _SIGFOX_EP_BITSTREAM_build_application_frame
 962  003B              _L5:
 962  003B              #pragma debug scope 6 5
 962  003B              #pragma debug scope 5 4
 962  003B              #pragma debug scope 4 3
 962  003B              #pragma debug scope 3 1
 962  003B              #pragma debug scope 10 3
 962  003B              ;begin block, line: 962.-1
 962  003B              #pragma debug scope 11 10
 962  003B              ;begin block, line: 962.-1
 962  003B              #pragma debug struct_end
 962  003B              #pragma debug struct_end
 962  003B              #pragma debug variable 44 11 __start_transmission_2+0 "frequency_parameters"
 710  003B              #line 710 "d:\sigfox-ep-example-holtek-bc68f2150-master-tb0\middleware\sigfox-ep-lib\src\sigfox_ep_api.c"
 710  003B  0700     R  	mov a,_sigfox_ep_api_ctx[51]
 710  003C  0080     R  	mov __start_transmission_2[0],a
 711  003D              #line 711 "d:\sigfox-ep-example-holtek-bc68f2150-master-tb0\middleware\sigfox-ep-lib\src\sigfox_ep_api.c"
 711  003D  0F01        	mov a,1
 711  003E  0300     R  	add a,_sigfox_ep_api_ctx[20]
 711  003F  0083        	mov mp,a
 711  0040  0F00        	mov a,0
 711  0041  1300     R  	adc a,_sigfox_ep_api_ctx[21]
 711  0042  0084        	mov sbp,a
 711  0043  2000     E  	call _Crom2Prom
 711  0044  0080     R  	mov __start_transmission_2[1],a
 739  0045              #line 739 "d:\sigfox-ep-example-holtek-bc68f2150-master-tb0\middleware\sigfox-ep-lib\src\sigfox_ep_api.c"
 739  0045  0F00     R  	mov a,low (offset _sigfox_ep_api_ctx+16)
 739  0046  0080     E  	mov _SIGFOX_EP_FREQUENCY_compute_uplink_2[2],a
 739  0047  0F00     R  	mov a,high (offset _sigfox_ep_api_ctx+16)
 739  0048  0080     E  	mov _SIGFOX_EP_FREQUENCY_compute_uplink_2[3],a
 739  0049  0F00     R  	mov a,low offset __start_transmission_2
 739  004A  0080     E  	mov _SIGFOX_EP_FREQUENCY_compute_uplink_2[0],a
 739  004B  0F00     R  	mov a,high offset __start_transmission_2
 739  004C  0080     E  	mov _SIGFOX_EP_FREQUENCY_compute_uplink_2[1],a
 739  004D  2000     E  	call _SIGFOX_EP_FREQUENCY_compute_uplink
 758  004E              #line 758 "d:\sigfox-ep-example-holtek-bc68f2150-master-tb0\middleware\sigfox-ep-lib\src\sigfox_ep_api.c"
 758  004E  0F00     R  	mov a,low (offset _sigfox_ep_api_ctx+14)
 758  004F  0080     E  	mov _SIGFOX_EP_FREQUENCY_get_random_value_2[0],a
 758  0050  0F00     R  	mov a,high (offset _sigfox_ep_api_ctx+14)
 758  0051  0080     E  	mov _SIGFOX_EP_FREQUENCY_get_random_value_2[1],a
 758  0052  2000     E  	call _SIGFOX_EP_FREQUENCY_get_random_value
 758  0053              #pragma debug scope 10 3
 758  0053              #pragma debug scope 3 1
 758  0053              #pragma debug scope 12 3
 758  0053              ;begin block, line: 758.-1
 758  0053              #pragma debug scope 13 12
 758  0053              ;begin block, line: 758.-1
 758  0053              #pragma debug struct_end
 758  0053              #pragma debug struct_end
 758  0053              #pragma debug variable 45 13 __start_transmission_2+0 "radio_params"
 758  0053              #pragma debug struct_end
 758  0053              #pragma debug struct_end
 758  0053              #pragma debug variable 46 13 __start_transmission_2+9 "tx_data"
1181  0053              #line 1181 "d:\sigfox-ep-example-holtek-bc68f2150-master-tb0\middleware\sigfox-ep-lib\src\sigfox_ep_api.c"
"File: sigfox_ep_api.c  Assembler  Version HGASM0202      Page 5

1181  0053  1F00     R  	clr __start_transmission_2[0]
1182  0054              #line 1182 "d:\sigfox-ep-example-holtek-bc68f2150-master-tb0\middleware\sigfox-ep-lib\src\sigfox_ep_api.c"
1182  0054  0F01        	mov a,1
1182  0055  0080     R  	mov __start_transmission_2[5],a
1183  0056              #line 1183 "d:\sigfox-ep-example-holtek-bc68f2150-master-tb0\middleware\sigfox-ep-lib\src\sigfox_ep_api.c"
1183  0056  0700     R  	mov a,_sigfox_ep_api_ctx[16]
1183  0057  0080     R  	mov __start_transmission_2[1],a
1183  0058  0700     R  	mov a,_sigfox_ep_api_ctx[17]
1183  0059  0080     R  	mov __start_transmission_2[2],a
1183  005A  0700     R  	mov a,_sigfox_ep_api_ctx[18]
1183  005B  0080     R  	mov __start_transmission_2[3],a
1183  005C  0700     R  	mov a,_sigfox_ep_api_ctx[19]
1183  005D  0080     R  	mov __start_transmission_2[4],a
1185  005E              #line 1185 "d:\sigfox-ep-example-holtek-bc68f2150-master-tb0\middleware\sigfox-ep-lib\src\sigfox_ep_api.c"
1185  005E  0F64        	mov a,100
1185  005F  0080     R  	mov __start_transmission_2[6],a
1185  0060  1F00     R  	clr __start_transmission_2[7]
1192  0061              #line 1192 "d:\sigfox-ep-example-holtek-bc68f2150-master-tb0\middleware\sigfox-ep-lib\src\sigfox_ep_api.c"
1192  0061  0700     R  	mov a,_sigfox_ep_api_ctx[20]
1192  0062  0083        	mov mp,a
1192  0063  0700     R  	mov a,_sigfox_ep_api_ctx[21]
1192  0064  0084        	mov sbp,a
1192  0065  2000     E  	call _Crom2Prom
1192  0066  0080     R  	mov __start_transmission_2[8],a
1192  0067              #pragma debug scope 14 13
1192  0067              ;begin block, line: 1192.-1
1192  0067              #pragma debug scope 15 14
1192  0067              ;begin block, line: 1192.-1
1131  0067              #line 1131 "d:\sigfox-ep-example-holtek-bc68f2150-master-tb0\middleware\sigfox-ep-lib\src\sigfox_ep_api.c"
1131  0067  3C00     R  	sz _sigfox_ep_api_ctx[8].3
1131  0068  2800     R  	jmp _L6
1136  0069              #line 1136 "d:\sigfox-ep-example-holtek-bc68f2150-master-tb0\middleware\sigfox-ep-lib\src\sigfox_ep_api.c"
1136  0069  2000     E  	call _RF_API_wake_up
1139  006A              #line 1139 "d:\sigfox-ep-example-holtek-bc68f2150-master-tb0\middleware\sigfox-ep-lib\src\sigfox_ep_api.c"
1139  006A  3000     R  	set _sigfox_ep_api_ctx[8].3
1139  006B              _L6:
1139  006B              #pragma debug scope 14 13
1139  006B              #pragma debug scope 13 12
1209  006B              #line 1209 "d:\sigfox-ep-example-holtek-bc68f2150-master-tb0\middleware\sigfox-ep-lib\src\sigfox_ep_api.c"
1209  006B  0F00     R  	mov a,low offset __start_transmission_2
1209  006C  0080     E  	mov _RF_API_init_2[0],a
1209  006D  0F00     R  	mov a,high offset __start_transmission_2
1209  006E  0080     E  	mov _RF_API_init_2[1],a
1209  006F  2000     E  	call _RF_API_init
1212  0070              #line 1212 "d:\sigfox-ep-example-holtek-bc68f2150-master-tb0\middleware\sigfox-ep-lib\src\sigfox_ep_api.c"
1212  0070  0F00     R  	mov a,low (offset _sigfox_ep_api_ctx+24)
1212  0071  0080     R  	mov __start_transmission_2[9],a
1212  0072  0F00     R  	mov a,high (offset _sigfox_ep_api_ctx+24)
1212  0073  0080     R  	mov __start_transmission_2[10],a
1213  0074              #line 1213 "d:\sigfox-ep-example-holtek-bc68f2150-master-tb0\middleware\sigfox-ep-lib\src\sigfox_ep_api.c"
1213  0074  0700     R  	mov a,_sigfox_ep_api_ctx[50]
1213  0075  0080     R  	mov __start_transmission_2[11],a
1221  0076              #line 1221 "d:\sigfox-ep-example-holtek-bc68f2150-master-tb0\middleware\sigfox-ep-lib\src\sigfox_ep_api.c"
1221  0076  0F00     R  	mov a,low offset __start_transmission_2
1221  0077  0080     E  	mov ra,a
1221  0078  0F00     R  	mov a,high offset __start_transmission_2
1221  0079  0080     E  	mov rb,a
1221  007A  0F09        	mov a,9
1221  007B  0300     E  	add a,ra
1221  007C  0080     E  	mov _RF_API_send_2[0],a
"File: sigfox_ep_api.c  Assembler  Version HGASM0202      Page 6

1221  007D  0F00        	mov a,0
1221  007E  1300     E  	adc a,rb
1221  007F  0080     E  	mov _RF_API_send_2[1],a
1221  0080  2000     E  	call _RF_API_send
1226  0081              #line 1226 "d:\sigfox-ep-example-holtek-bc68f2150-master-tb0\middleware\sigfox-ep-lib\src\sigfox_ep_api.c"
1226  0081  3000     R  	set _sigfox_ep_api_ctx[9].0
1228  0082              #line 1228 "d:\sigfox-ep-example-holtek-bc68f2150-master-tb0\middleware\sigfox-ep-lib\src\sigfox_ep_api.c"
1228  0082  1480     R  	inc _sigfox_ep_api_ctx[52]
1235  0083              #line 1235 "d:\sigfox-ep-example-holtek-bc68f2150-master-tb0\middleware\sigfox-ep-lib\src\sigfox_ep_api.c"
1235  0083  3000     R  	set _sigfox_ep_api_ctx[10].4
1235  0084              #pragma debug scope 12 3
1235  0084              #pragma debug scope 3 1
1518  0084              #line 1518 "d:\sigfox-ep-example-holtek-bc68f2150-master-tb0\middleware\sigfox-ep-lib\src\sigfox_ep_api.c"
1518  0084  0F02        	mov a,2
1518  0085  0080     R  	mov _sigfox_ep_api_ctx[6],a
1518  0086  0003        	ret
1518  0087              __start_transmission endp
1518  0087              #line 1518 "d:\sigfox-ep-example-holtek-bc68f2150-master-tb0\middleware\sigfox-ep-lib\src\sigfox_ep_api.c"
1518  0087              #pragma debug scope 1 1
1518  0087              #pragma debug scope 16 1
2028  0087              #line 2028 "d:\sigfox-ep-example-holtek-bc68f2150-master-tb0\middleware\sigfox-ep-lib\src\sigfox_ep_api.c"
2028  0000              __internal_process .section 'code'
2028  0000              __internal_process proc
2028  0000  0007[           local __internal_process_2 db 7 dup(?)	; 0,7
            00
            ]
2050  0007              #line 2050 "d:\sigfox-ep-example-holtek-bc68f2150-master-tb0\middleware\sigfox-ep-lib\src\sigfox_ep_api.c"
2050  0000  0700     R  	mov a,_sigfox_ep_api_ctx[6]
2050  0001  0080     R  	mov __internal_process_2[6],a
2050  0002  0700     R  	mov a,__internal_process_2[6]
2050  0003  0A00        	sub a,0
2050  0004  3D0A        	sz z
2050  0005  2800     R  	jmp _L8
2050  0006  0A01        	sub a,(1)-(0)
2050  0007  3D0A        	sz z
2050  0008  2800     R  	jmp _L9
2108  0009              #line 2108 "d:\sigfox-ep-example-holtek-bc68f2150-master-tb0\middleware\sigfox-ep-lib\src\sigfox_ep_api.c"
2108  0009  0700     R  	mov a,__internal_process_2[6]
2108  000A  0A02        	sub a,2
2108  000B  3D0A        	sz z
2108  000C  2800     R  	jmp _L10
2108  000D  0700     R  	mov a,__internal_process_2[6]
2108  000E  0A03        	sub a,3
2108  000F  390A        	snz z
2108  0010  2800     R  	jmp _L8
2108  0011  2800     R  	jmp _L42
2108  0012              _L9:
2111  0012              #line 2111 "d:\sigfox-ep-example-holtek-bc68f2150-master-tb0\middleware\sigfox-ep-lib\src\sigfox_ep_api.c"
2111  0012  3800     R  	snz _sigfox_ep_api_ctx[8].2
2111  0013  2800     R  	jmp _L7
2164  0014              #line 2164 "d:\sigfox-ep-example-holtek-bc68f2150-master-tb0\middleware\sigfox-ep-lib\src\sigfox_ep_api.c"
2164  0014  2000     R  	call __start_transmission
2168  0015              #line 2168 "d:\sigfox-ep-example-holtek-bc68f2150-master-tb0\middleware\sigfox-ep-lib\src\sigfox_ep_api.c"
2168  0015  3400     R  	clr _sigfox_ep_api_ctx[8].2
2168  0016  2800     R  	jmp _L7
2168  0017              _L10:
2249  0017              #line 2249 "d:\sigfox-ep-example-holtek-bc68f2150-master-tb0\middleware\sigfox-ep-lib\src\sigfox_ep_api.c"
2249  0017  3800     R  	snz _sigfox_ep_api_ctx[10].4
2249  0018  2800     R  	jmp _L7
2251  0019              #line 2251 "d:\sigfox-ep-example-holtek-bc68f2150-master-tb0\middleware\sigfox-ep-lib\src\sigfox_ep_api.c"
"File: sigfox_ep_api.c  Assembler  Version HGASM0202      Page 7

2251  0019  3400     R  	clr _sigfox_ep_api_ctx[10].4
2251  001A              #pragma debug scope 17 16
2251  001A              ;begin block, line: 2251.-1
2251  001A              #pragma debug scope 18 17
2251  001A              ;begin block, line: 2251.-1
2251  001A              #pragma debug scope 19 18
2251  001A              ;begin block, line: 2251.-1
2251  001A              #pragma debug scope 20 19
2251  001A              ;begin block, line: 2251.-1
1563  001A              #line 1563 "d:\sigfox-ep-example-holtek-bc68f2150-master-tb0\middleware\sigfox-ep-lib\src\sigfox_ep_api.c"
1563  001A  0700     R  	mov a,_sigfox_ep_api_ctx[51]
1563  001B  0A00        	sub a,0
1563  001C  3D0A        	sz z
1563  001D  2800     R  	jmp _L16
1563  001E  0A01        	sub a,(1)-(0)
1563  001F  3D0A        	sz z
1563  0020  2800     R  	jmp _L17
1563  0021  0700     R  	mov a,_sigfox_ep_api_ctx[51]
1563  0022  0A02        	sub a,2
1563  0023  390A        	snz z
1563  0024  2800     R  	jmp _L15
1571  0025              #line 1571 "d:\sigfox-ep-example-holtek-bc68f2150-master-tb0\middleware\sigfox-ep-lib\src\sigfox_ep_api.c"
1571  0025  0700     R  	mov a,_sigfox_ep_api_ctx[9]
1571  0026  0E01        	and a,1
1571  0027  0080     E  	mov rb,a
1571  0028  1F00     E  	clr ra
1571  0029  1080     E  	sz rb
1571  002A  3000     E  	set ra.2
1571  002B  3400     R  	clr _sigfox_ep_api_ctx[7].2
1571  002C  2800     R  	jmp _L41
1571  002D              _L16:
1565  002D              #line 1565 "d:\sigfox-ep-example-holtek-bc68f2150-master-tb0\middleware\sigfox-ep-lib\src\sigfox_ep_api.c"
1565  002D  0700     R  	mov a,_sigfox_ep_api_ctx[9]
1565  002E  0E01        	and a,1
1565  002F  0080     E  	mov ra,a
1565  0030  3400     R  	clr _sigfox_ep_api_ctx[7].0
1565  0031  2800     R  	jmp _L41
1565  0032              _L17:
1568  0032              #line 1568 "d:\sigfox-ep-example-holtek-bc68f2150-master-tb0\middleware\sigfox-ep-lib\src\sigfox_ep_api.c"
1568  0032  0700     R  	mov a,_sigfox_ep_api_ctx[9]
1568  0033  0E01        	and a,1
1568  0034  0080     E  	mov ra,a
1568  0035  0700     E  	mov a,ra
1568  0036  0380     E  	addm a,ra
1568  0037  3400     R  	clr _sigfox_ep_api_ctx[7].1
1568  0038              _L41:
1571  0038              #line 1571 "d:\sigfox-ep-example-holtek-bc68f2150-master-tb0\middleware\sigfox-ep-lib\src\sigfox_ep_api.c"
1571  0038  0700     E  	mov a,ra
1571  0039  0580     R  	orm a,_sigfox_ep_api_ctx[7]
1571  003A              _L15:
1571  003A              #pragma debug scope 19 18
1571  003A              #pragma debug scope 18 17
1775  003A              #line 1775 "d:\sigfox-ep-example-holtek-bc68f2150-master-tb0\middleware\sigfox-ep-lib\src\sigfox_ep_api.c"
1775  003A  3800     R  	snz _sigfox_ep_api_ctx[9].0
1775  003B  2800     R  	jmp _L19
1780  003C              #line 1780 "d:\sigfox-ep-example-holtek-bc68f2150-master-tb0\middleware\sigfox-ep-lib\src\sigfox_ep_api.c"
1780  003C  2000     E  	call _RF_API_de_init
1780  003D              _L19:
1805  003D              #line 1805 "d:\sigfox-ep-example-holtek-bc68f2150-master-tb0\middleware\sigfox-ep-lib\src\sigfox_ep_api.c"
1805  003D  2000     R  	call __is_last_frame_of_uplink_sequence
"File: sigfox_ep_api.c  Assembler  Version HGASM0202      Page 8

1805  003E  0080     E  	mov ra,a
1805  003F  1700     E  	sdza ra
1805  0040  2800     R  	jmp _L20
1805  0041              #pragma debug scope 21 18
1805  0041              ;begin block, line: 1805.-1
1805  0041              #pragma debug scope 22 21
1805  0041              ;begin block, line: 1805.-1
1155  0041              #line 1155 "d:\sigfox-ep-example-holtek-bc68f2150-master-tb0\middleware\sigfox-ep-lib\src\sigfox_ep_api.c"
1155  0041  3800     R  	snz _sigfox_ep_api_ctx[8].3
1155  0042  2800     R  	jmp _L21
1160  0043              #line 1160 "d:\sigfox-ep-example-holtek-bc68f2150-master-tb0\middleware\sigfox-ep-lib\src\sigfox_ep_api.c"
1160  0043  2000     E  	call _RF_API_sleep
1163  0044              #line 1163 "d:\sigfox-ep-example-holtek-bc68f2150-master-tb0\middleware\sigfox-ep-lib\src\sigfox_ep_api.c"
1163  0044  3400     R  	clr _sigfox_ep_api_ctx[8].3
1163  0045              _L21:
1163  0045              #pragma debug scope 21 18
1163  0045              #pragma debug scope 18 17
1163  0045              #pragma debug scope 23 18
1163  0045              ;begin block, line: 1163.-1
1163  0045              #pragma debug scope 24 23
1163  0045              ;begin block, line: 1163.-1
1163  0045              #pragma debug array 47 8 4 24
1163  0045              #pragma debug array 47 8 4 24
1163  0045              #pragma debug variable 47 24 __internal_process_2+0 "nvm_data"
1592  0045              #line 1592 "d:\sigfox-ep-example-holtek-bc68f2150-master-tb0\middleware\sigfox-ep-lib\src\sigfox_ep_api.c"
1592  0045  1E00     R  	snz _sigfox_ep_api_ctx[52]
1592  0046  2800     R  	jmp _L20
1595  0047              #line 1595 "d:\sigfox-ep-example-holtek-bc68f2150-master-tb0\middleware\sigfox-ep-lib\src\sigfox_ep_api.c"
1595  0047  0700     R  	mov a,_sigfox_ep_api_ctx[13]
1595  0048  0080     R  	mov __internal_process_2[3],a
1596  0049              #line 1596 "d:\sigfox-ep-example-holtek-bc68f2150-master-tb0\middleware\sigfox-ep-lib\src\sigfox_ep_api.c"
1596  0049  0700     R  	mov a,_sigfox_ep_api_ctx[12]
1596  004A  0080     R  	mov __internal_process_2[2],a
1597  004B              #line 1597 "d:\sigfox-ep-example-holtek-bc68f2150-master-tb0\middleware\sigfox-ep-lib\src\sigfox_ep_api.c"
1597  004B  0700     R  	mov a,_sigfox_ep_api_ctx[15]
1597  004C  0080     R  	mov __internal_process_2[1],a
1598  004D              #line 1598 "d:\sigfox-ep-example-holtek-bc68f2150-master-tb0\middleware\sigfox-ep-lib\src\sigfox_ep_api.c"
1598  004D  0700     R  	mov a,_sigfox_ep_api_ctx[14]
1598  004E  0080     R  	mov __internal_process_2[0],a
1604  004F              #line 1604 "d:\sigfox-ep-example-holtek-bc68f2150-master-tb0\middleware\sigfox-ep-lib\src\sigfox_ep_api.c"
1604  004F  0F04        	mov a,4
1604  0050  0080     E  	mov _MCU_API_set_nvm_2[2],a
1604  0051  0F00     R  	mov a,low offset __internal_process_2
1604  0052  0080     E  	mov _MCU_API_set_nvm_2[0],a
1604  0053  0F00     R  	mov a,high offset __internal_process_2
1604  0054  0080     E  	mov _MCU_API_set_nvm_2[1],a
1604  0055  2000     E  	call _MCU_API_set_nvm
1607  0056              #line 1607 "d:\sigfox-ep-example-holtek-bc68f2150-master-tb0\middleware\sigfox-ep-lib\src\sigfox_ep_api.c"
1607  0056  3400     R  	clr _sigfox_ep_api_ctx[9].1
1607  0057              _L20:
1607  0057              #pragma debug scope 23 18
1607  0057              #pragma debug scope 18 17
1607  0057              #pragma debug scope 25 18
1607  0057              ;begin block, line: 1607.-1
1607  0057              #pragma debug scope 26 25
1607  0057              ;begin block, line: 1607.-1
1704  0057              #line 1704 "d:\sigfox-ep-example-holtek-bc68f2150-master-tb0\middleware\sigfox-ep-lib\src\sigfox_ep_api.c"
1704  0057  2000     R  	call __is_last_frame_of_uplink_sequence
1704  0058  0080     E  	mov ra,a
1704  0059  1700     E  	sdza ra
"File: sigfox_ep_api.c  Assembler  Version HGASM0202      Page 9

1704  005A  2800     R  	jmp _LI1
1704  005B  2800     R  	jmp _L25
1704  005C              _LI1:
1709  005C              #line 1709 "d:\sigfox-ep-example-holtek-bc68f2150-master-tb0\middleware\sigfox-ep-lib\src\sigfox_ep_api.c"
1709  005C  0700     R  	mov a,_sigfox_ep_api_ctx[53]
1709  005D  0080     E  	mov rd,a
1709  005E  0700     R  	mov a,_sigfox_ep_api_ctx[54]
1709  005F  0080     E  	mov re,a
1709  0060  0700     R  	mov a,_sigfox_ep_api_ctx[55]
1709  0061  0080     E  	mov rf,a
1709  0062  0700     R  	mov a,_sigfox_ep_api_ctx[56]
1709  0063  0080     E  	mov rg,a
1709  0064  0700     E  	mov a,rd
1709  0065  0500     E  	or a,re
1709  0066  0500     E  	or a,rf
1709  0067  0500     E  	or a,rg
1709  0068  3D0A        	sz z
1709  0069  2800     R  	jmp _L24
1709  006A              #pragma debug scope 27 26
1709  006A              ;begin block, line: 1709.-1
1709  006A              #pragma debug scope 28 27
1709  006A              ;begin block, line: 1709.-1
1709  006A              #pragma debug struct_end
1709  006A              #pragma debug struct_end
1709  006A              #pragma debug variable 48 28 __internal_process_2+0 "mcu_timer"
1312  006A              #line 1312 "d:\sigfox-ep-example-holtek-bc68f2150-master-tb0\middleware\sigfox-ep-lib\src\sigfox_ep_api.c"
1312  006A  1F00     R  	clr __internal_process_2[0]
1313  006B              #line 1313 "d:\sigfox-ep-example-holtek-bc68f2150-master-tb0\middleware\sigfox-ep-lib\src\sigfox_ep_api.c"
1313  006B  1F00     R  	clr __internal_process_2[1]
1314  006C              #line 1314 "d:\sigfox-ep-example-holtek-bc68f2150-master-tb0\middleware\sigfox-ep-lib\src\sigfox_ep_api.c"
1314  006C  0700     E  	mov a,rd
1314  006D  0080     R  	mov __internal_process_2[2],a
1314  006E  0700     E  	mov a,re
1314  006F  0080     R  	mov __internal_process_2[3],a
1314  0070  0700     E  	mov a,rf
1314  0071  0080     R  	mov __internal_process_2[4],a
1314  0072  0700     E  	mov a,rg
1314  0073  0080     R  	mov __internal_process_2[5],a
1401  0074              #line 1401 "d:\sigfox-ep-example-holtek-bc68f2150-master-tb0\middleware\sigfox-ep-lib\src\sigfox_ep_api.c"
1401  0074  0F00     R  	mov a,low offset __internal_process_2
1401  0075  0080     E  	mov _MCU_API_timer_start_2[0],a
1401  0076  0F00     R  	mov a,high offset __internal_process_2
1401  0077  0080     E  	mov _MCU_API_timer_start_2[1],a
1401  0078  2000     E  	call _MCU_API_timer_start
1401  0079              #pragma debug scope 27 26
1401  0079              #pragma debug scope 26 25
1717  0079              #line 1717 "d:\sigfox-ep-example-holtek-bc68f2150-master-tb0\middleware\sigfox-ep-lib\src\sigfox_ep_api.c"
1717  0079  0F03        	mov a,3
1717  007A  0080     E  	mov ra,a
1717  007B  2800     R  	jmp _L23
1717  007C              _L24:
1725  007C              #line 1725 "d:\sigfox-ep-example-holtek-bc68f2150-master-tb0\middleware\sigfox-ep-lib\src\sigfox_ep_api.c"
1725  007C  2000     R  	call __start_transmission
1725  007D              _L25:
1705  007D              #line 1705 "d:\sigfox-ep-example-holtek-bc68f2150-master-tb0\middleware\sigfox-ep-lib\src\sigfox_ep_api.c"
1705  007D  0F01        	mov a,1
1705  007E  0080     E  	mov ra,a
1705  007F              _L23:
1744  007F              #line 1744 "d:\sigfox-ep-example-holtek-bc68f2150-master-tb0\middleware\sigfox-ep-lib\src\sigfox_ep_api.c"
1744  007F  1480     R  	inc _sigfox_ep_api_ctx[51]
"File: sigfox_ep_api.c  Assembler  Version HGASM0202      Page 10

1747  0080              #line 1747 "d:\sigfox-ep-example-holtek-bc68f2150-master-tb0\middleware\sigfox-ep-lib\src\sigfox_ep_api.c"
1747  0080  0700     E  	mov a,ra
1747  0081  0080     R  	mov _sigfox_ep_api_ctx[6],a
1747  0082  2800     R  	jmp _L7
1747  0083              _L42:
1747  0083              #pragma debug scope 25 18
1747  0083              #pragma debug scope 18 17
1747  0083              #pragma debug scope 17 16
1747  0083              #pragma debug scope 16 1
1747  0083              #pragma debug scope 29 16
1747  0083              ;begin block, line: 1747.-1
1747  0083              #pragma debug scope 30 29
1747  0083              ;begin block, line: 1747.-1
2276  0083              #line 2276 "d:\sigfox-ep-example-holtek-bc68f2150-master-tb0\middleware\sigfox-ep-lib\src\sigfox_ep_api.c"
2276  0083  0F00        	mov a,0
2276  0084  2000     E  	call _MCU_API_timer_wait_cplt
2278  0085              #line 2278 "d:\sigfox-ep-example-holtek-bc68f2150-master-tb0\middleware\sigfox-ep-lib\src\sigfox_ep_api.c"
2278  0085  3000     R  	set _sigfox_ep_api_ctx[10].1
2281  0086              #line 2281 "d:\sigfox-ep-example-holtek-bc68f2150-master-tb0\middleware\sigfox-ep-lib\src\sigfox_ep_api.c"
2281  0086  3800     R  	snz _sigfox_ep_api_ctx[10].1
2281  0087  2800     R  	jmp _L7
2287  0088              #line 2287 "d:\sigfox-ep-example-holtek-bc68f2150-master-tb0\middleware\sigfox-ep-lib\src\sigfox_ep_api.c"
2287  0088  0F00        	mov a,0
2287  0089  2000     E  	call _MCU_API_timer_stop
2289  008A              #line 2289 "d:\sigfox-ep-example-holtek-bc68f2150-master-tb0\middleware\sigfox-ep-lib\src\sigfox_ep_api.c"
2289  008A  3400     R  	clr _sigfox_ep_api_ctx[10].1
2295  008B              #line 2295 "d:\sigfox-ep-example-holtek-bc68f2150-master-tb0\middleware\sigfox-ep-lib\src\sigfox_ep_api.c"
2295  008B  2000     R  	call __start_transmission
2295  008C  2800     R  	jmp _L7
2295  008D              _L8:
2295  008D              #pragma debug scope 29 16
2295  008D              #pragma debug scope 16 1
2492  008D              #line 2492 "d:\sigfox-ep-example-holtek-bc68f2150-master-tb0\middleware\sigfox-ep-lib\src\sigfox_ep_api.c"
2492  008D  1F00     R  	clr _sigfox_ep_api_ctx[10]
2492  008E  1F00     R  	clr _sigfox_ep_api_ctx[11]
2494  008F              #line 2494 "d:\sigfox-ep-example-holtek-bc68f2150-master-tb0\middleware\sigfox-ep-lib\src\sigfox_ep_api.c"
2494  008F  3400     R  	clr _sigfox_ep_api_ctx[8].3
2495  0090              #line 2495 "d:\sigfox-ep-example-holtek-bc68f2150-master-tb0\middleware\sigfox-ep-lib\src\sigfox_ep_api.c"
2495  0090  3400     R  	clr _sigfox_ep_api_ctx[8].6
2496  0091              #line 2496 "d:\sigfox-ep-example-holtek-bc68f2150-master-tb0\middleware\sigfox-ep-lib\src\sigfox_ep_api.c"
2496  0091  3400     R  	clr _sigfox_ep_api_ctx[8].7
2498  0092              #line 2498 "d:\sigfox-ep-example-holtek-bc68f2150-master-tb0\middleware\sigfox-ep-lib\src\sigfox_ep_api.c"
2498  0092  3000     R  	set _sigfox_ep_api_ctx[7].6
2511  0093              #line 2511 "d:\sigfox-ep-example-holtek-bc68f2150-master-tb0\middleware\sigfox-ep-lib\src\sigfox_ep_api.c"
2511  0093  0F01        	mov a,1
2511  0094  0080     R  	mov _sigfox_ep_api_ctx[6],a
2511  0095              _L7:
2511  0095  0003        	ret
2511  0096              __internal_process endp
2511  0096              #line 2511 "d:\sigfox-ep-example-holtek-bc68f2150-master-tb0\middleware\sigfox-ep-lib\src\sigfox_ep_api.c"
2511  0096              #pragma debug scope 1 1
2511  0096              public _SIGFOX_EP_API_open
2511  0096              #pragma debug scope 31 1
2636  0096              #line 2636 "d:\sigfox-ep-example-holtek-bc68f2150-master-tb0\middleware\sigfox-ep-lib\src\sigfox_ep_api.c"
2636  0000              _SIGFOX_EP_API_open .section 'code'
2636  0000              _SIGFOX_EP_API_open proc
2636  0000              public _SIGFOX_EP_API_open_2
2636  0000  000A[           local _SIGFOX_EP_API_open_2 db 10 dup(?)	; 2,8
            00
            ]
"File: sigfox_ep_api.c  Assembler  Version HGASM0202      Page 11

2636  000A              #pragma debug struct_end
2636  000A              #pragma debug struct_end
2636  000A              #pragma debug struct_end
2636  000A              #pragma debug struct_end
2636  000A              #pragma debug struct_end
2636  000A              #pragma debug struct_end
2636  000A              #pragma debug pointer 52 51 31
2636  000A              #pragma debug pointer 52 51 31
2636  000A              #pragma debug variable 52 31 _SIGFOX_EP_API_open_2+0 "config"
2636  000A              #pragma debug array 53 8 4 31
2636  000A              #pragma debug array 53 8 4 31
2636  000A              #pragma debug variable 53 31 _SIGFOX_EP_API_open_2+6 "ep_id"
2636  000A              #pragma debug variable 53 31 _SIGFOX_EP_API_open_2+2 "nvm_data"
2670  000A              #line 2670 "d:\sigfox-ep-example-holtek-bc68f2150-master-tb0\middleware\sigfox-ep-lib\src\sigfox_ep_api.c"
2670  0000  1080     R  	sz _sigfox_ep_api_ctx[6]
2670  0001  2800     R  	jmp _L43
2678  0002              #line 2678 "d:\sigfox-ep-example-holtek-bc68f2150-master-tb0\middleware\sigfox-ep-lib\src\sigfox_ep_api.c"
2678  0002  0700     R  	mov a,_SIGFOX_EP_API_open_2[0]
2678  0003  0083        	mov mp,a
2678  0004  0700     R  	mov a,_SIGFOX_EP_API_open_2[1]
2678  0005  0084        	mov sbp,a
2678  0006  2000     E  	call _Crom2Prom
2678  0007  0080     E  	mov rb,a
2678  0008  2000     E  	call _Crom2PromNext
2678  0009  0080     E  	mov rc,a
2678  000A  0700     E  	mov a,rb
2678  000B  0500     E  	or a,rc
2678  000C  3D0A        	sz z
2678  000D  2800     R  	jmp _L43
2681  000E              #line 2681 "d:\sigfox-ep-example-holtek-bc68f2150-master-tb0\middleware\sigfox-ep-lib\src\sigfox_ep_api.c"
2681  000E  0700     E  	mov a,rb
2681  000F  0080     R  	mov _sigfox_ep_api_ctx[0],a
2681  0010  0700     E  	mov a,rc
2681  0011  0080     R  	mov _sigfox_ep_api_ctx[1],a
2757  0012              #line 2757 "d:\sigfox-ep-example-holtek-bc68f2150-master-tb0\middleware\sigfox-ep-lib\src\sigfox_ep_api.c"
2757  0012  0F04        	mov a,4
2757  0013  0080     E  	mov _MCU_API_get_nvm_2[2],a
2757  0014  0F00     R  	mov a,low offset _SIGFOX_EP_API_open_2
2757  0015  0080     E  	mov ra,a
2757  0016  0F00     R  	mov a,high offset _SIGFOX_EP_API_open_2
2757  0017  0080     E  	mov rb,a
2757  0018  0F02        	mov a,2
2757  0019  0300     E  	add a,ra
2757  001A  0080     E  	mov _MCU_API_get_nvm_2[0],a
2757  001B  0F00        	mov a,0
2757  001C  1300     E  	adc a,rb
2757  001D  0080     E  	mov _MCU_API_get_nvm_2[1],a
2757  001E  2000     E  	call _MCU_API_get_nvm
2761  001F              #line 2761 "d:\sigfox-ep-example-holtek-bc68f2150-master-tb0\middleware\sigfox-ep-lib\src\sigfox_ep_api.c"
2761  001F  0700     R  	mov a,_SIGFOX_EP_API_open_2[5]
2761  0020  0080     R  	mov _sigfox_ep_api_ctx[13],a
2761  0021  0700     R  	mov a,_SIGFOX_EP_API_open_2[4]
2761  0022  0080     R  	mov _sigfox_ep_api_ctx[12],a
2764  0023              #line 2764 "d:\sigfox-ep-example-holtek-bc68f2150-master-tb0\middleware\sigfox-ep-lib\src\sigfox_ep_api.c"
2764  0023  0700     R  	mov a,_SIGFOX_EP_API_open_2[3]
2764  0024  0080     R  	mov _sigfox_ep_api_ctx[15],a
2764  0025  0700     R  	mov a,_SIGFOX_EP_API_open_2[2]
2764  0026  0080     R  	mov _sigfox_ep_api_ctx[14],a
2770  0027              #line 2770 "d:\sigfox-ep-example-holtek-bc68f2150-master-tb0\middleware\sigfox-ep-lib\src\sigfox_ep_api.c"
2770  0027  0F04        	mov a,4
"File: sigfox_ep_api.c  Assembler  Version HGASM0202      Page 12

2770  0028  0080     E  	mov _MCU_API_get_ep_id_2[2],a
2770  0029  0F00     R  	mov a,low offset _SIGFOX_EP_API_open_2
2770  002A  0080     E  	mov ra,a
2770  002B  0F00     R  	mov a,high offset _SIGFOX_EP_API_open_2
2770  002C  0080     E  	mov rb,a
2770  002D  0F06        	mov a,6
2770  002E  0300     E  	add a,ra
2770  002F  0080     E  	mov _MCU_API_get_ep_id_2[0],a
2770  0030  0F00        	mov a,0
2770  0031  1300     E  	adc a,rb
2770  0032  0080     E  	mov _MCU_API_get_ep_id_2[1],a
2770  0033  2000     E  	call _MCU_API_get_ep_id
2773  0034              #line 2773 "d:\sigfox-ep-example-holtek-bc68f2150-master-tb0\middleware\sigfox-ep-lib\src\sigfox_ep_api.c"
2773  0034  0700     R  	mov a,_SIGFOX_EP_API_open_2[6]
2773  0035  0080     R  	mov _sigfox_ep_api_ctx[2],a
2773  0036  0700     R  	mov a,_SIGFOX_EP_API_open_2[7]
2773  0037  0080     R  	mov _sigfox_ep_api_ctx[3],a
2773  0038  0700     R  	mov a,_SIGFOX_EP_API_open_2[8]
2773  0039  0080     R  	mov _sigfox_ep_api_ctx[4],a
2773  003A  0700     R  	mov a,_SIGFOX_EP_API_open_2[9]
2773  003B  0080     R  	mov _sigfox_ep_api_ctx[5],a
2780  003C              #line 2780 "d:\sigfox-ep-example-holtek-bc68f2150-master-tb0\middleware\sigfox-ep-lib\src\sigfox_ep_api.c"
2780  003C  0700     R  	mov a,_sigfox_ep_api_ctx[14]
2780  003D  0080     E  	mov _SIGFOX_EP_FREQUENCY_init_2[4],a
2780  003E  0700     R  	mov a,_sigfox_ep_api_ctx[15]
2780  003F  0080     E  	mov _SIGFOX_EP_FREQUENCY_init_2[5],a
2780  0040  0F00     R  	mov a,low offset _SIGFOX_EP_API_open_2
2780  0041  0080     E  	mov ra,a
2780  0042  0F00     R  	mov a,high offset _SIGFOX_EP_API_open_2
2780  0043  0080     E  	mov rb,a
2780  0044  0F06        	mov a,6
2780  0045  0300     E  	add a,ra
2780  0046  0080     E  	mov _SIGFOX_EP_FREQUENCY_init_2[2],a
2780  0047  0F00        	mov a,0
2780  0048  1300     E  	adc a,rb
2780  0049  0080     E  	mov _SIGFOX_EP_FREQUENCY_init_2[3],a
2780  004A  0700     R  	mov a,_sigfox_ep_api_ctx[0]
2780  004B  0080     E  	mov _SIGFOX_EP_FREQUENCY_init_2[0],a
2780  004C  0700     R  	mov a,_sigfox_ep_api_ctx[1]
2780  004D  0080     E  	mov _SIGFOX_EP_FREQUENCY_init_2[1],a
2780  004E  2000     E  	call _SIGFOX_EP_FREQUENCY_init
2783  004F              #line 2783 "d:\sigfox-ep-example-holtek-bc68f2150-master-tb0\middleware\sigfox-ep-lib\src\sigfox_ep_api.c"
2783  004F  0F01        	mov a,1
2783  0050  0080     R  	mov _sigfox_ep_api_ctx[6],a
2783  0051              _L44:
2783  0051              _L43:
2783  0051  0003        	ret
2783  0052              _SIGFOX_EP_API_open endp
2783  0052              #line 2783 "d:\sigfox-ep-example-holtek-bc68f2150-master-tb0\middleware\sigfox-ep-lib\src\sigfox_ep_api.c"
2783  0052              #pragma debug scope 1 1
2783  0052              public _SIGFOX_EP_API_close
2783  0052              #pragma debug scope 32 1
2789  0052              #line 2789 "d:\sigfox-ep-example-holtek-bc68f2150-master-tb0\middleware\sigfox-ep-lib\src\sigfox_ep_api.c"
2789  0000              _SIGFOX_EP_API_close .section 'code'
2789  0000              _SIGFOX_EP_API_close proc
2799  0000              #line 2799 "d:\sigfox-ep-example-holtek-bc68f2150-master-tb0\middleware\sigfox-ep-lib\src\sigfox_ep_api.c"
2799  0000  1700     R  	sdza _sigfox_ep_api_ctx[6]
2799  0001  2800     R  	jmp _L48
2817  0002              #line 2817 "d:\sigfox-ep-example-holtek-bc68f2150-master-tb0\middleware\sigfox-ep-lib\src\sigfox_ep_api.c"
2817  0002  1F00     R  	clr _sigfox_ep_api_ctx[6]
"File: sigfox_ep_api.c  Assembler  Version HGASM0202      Page 13

2817  0003              _L49:
2817  0003              _L48:
2817  0003  0003        	ret
2817  0004              _SIGFOX_EP_API_close endp
2817  0004              #line 2817 "d:\sigfox-ep-example-holtek-bc68f2150-master-tb0\middleware\sigfox-ep-lib\src\sigfox_ep_api.c"
2817  0004              #pragma debug scope 1 1
2817  0004              public _SIGFOX_EP_API_send_application_message
2817  0004              #pragma debug scope 33 1
2851  0004              #line 2851 "d:\sigfox-ep-example-holtek-bc68f2150-master-tb0\middleware\sigfox-ep-lib\src\sigfox_ep_api.c"
2851  0000              _SIGFOX_EP_API_send_application_message .section 'code'
2851  0000              _SIGFOX_EP_API_send_application_message proc
2851  0000              public _SIGFOX_EP_API_send_application_message_2
2851  0000  0002[           local _SIGFOX_EP_API_send_application_message_2 db 2 dup(?)	; 2,0
            00
            ]
2851  0002              #pragma debug struct_end
2851  0002              #pragma debug struct_end
2851  0002              #pragma debug struct_end
2851  0002              #pragma debug struct_end
2851  0002              #pragma debug pointer 56 55 33
2851  0002              #pragma debug pointer 56 55 33
2851  0002              #pragma debug variable 56 33 _SIGFOX_EP_API_send_application_message_2+0 "application_message"
2851  0000              #pragma debug scope 34 33
2851  0000              ;begin block, line: 2851.-1
2851  0000              #pragma debug scope 35 34
2851  0000              ;begin block, line: 2851.-1
2523  0000              #line 2523 "d:\sigfox-ep-example-holtek-bc68f2150-master-tb0\middleware\sigfox-ep-lib\src\sigfox_ep_api.c"
2523  0000  1700     R  	sdza _sigfox_ep_api_ctx[6]
2523  0001  2800     R  	jmp _LI2
2523  0002  2800     R  	jmp _L51
2523  0003              _LI2:
2523  0003              _L55:
2568  0003              #line 2568 "d:\sigfox-ep-example-holtek-bc68f2150-master-tb0\middleware\sigfox-ep-lib\src\sigfox_ep_api.c"
2568  0003  3400     R  	clr _sigfox_ep_api_ctx[8].2
2568  0004  2800     R  	jmp _L57
2568  0005              _L51:
2525  0005              #line 2525 "d:\sigfox-ep-example-holtek-bc68f2150-master-tb0\middleware\sigfox-ep-lib\src\sigfox_ep_api.c"
2525  0005  1F00     R  	clr _sigfox_ep_api_ctx[7]
2527  0006              #line 2527 "d:\sigfox-ep-example-holtek-bc68f2150-master-tb0\middleware\sigfox-ep-lib\src\sigfox_ep_api.c"
2527  0006  1F00     R  	clr _sigfox_ep_api_ctx[10]
2527  0007  1F00     R  	clr _sigfox_ep_api_ctx[11]
2527  0008              #pragma debug scope 36 35
2527  0008              ;begin block, line: 2527.-1
2527  0008              #pragma debug scope 37 36
2527  0008              ;begin block, line: 2527.-1
 615  0008              #line 615 "d:\sigfox-ep-example-holtek-bc68f2150-master-tb0\middleware\sigfox-ep-lib\src\sigfox_ep_api.c"
 615  0008  0700     R  	mov a,_SIGFOX_EP_API_send_application_message_2[0]
 615  0009  0080     R  	mov _sigfox_ep_api_ctx[22],a
 615  000A  0700     R  	mov a,_SIGFOX_EP_API_send_application_message_2[1]
 615  000B  0080     R  	mov _sigfox_ep_api_ctx[23],a
 620  000C              #line 620 "d:\sigfox-ep-example-holtek-bc68f2150-master-tb0\middleware\sigfox-ep-lib\src\sigfox_ep_api.c"
 620  000C  0700     R  	mov a,_SIGFOX_EP_API_send_application_message_2[0]
 620  000D  0080     R  	mov _sigfox_ep_api_ctx[20],a
 620  000E  0700     R  	mov a,_SIGFOX_EP_API_send_application_message_2[1]
 620  000F  0080     R  	mov _sigfox_ep_api_ctx[21],a
 620  0010              #pragma debug scope 36 35
 620  0010              #pragma debug scope 35 34
2541  0010              #line 2541 "d:\sigfox-ep-example-holtek-bc68f2150-master-tb0\middleware\sigfox-ep-lib\src\sigfox_ep_api.c"
2541  0010  3000     R  	set _sigfox_ep_api_ctx[8].2
2542  0011              #line 2542 "d:\sigfox-ep-example-holtek-bc68f2150-master-tb0\middleware\sigfox-ep-lib\src\sigfox_ep_api.c"
"File: sigfox_ep_api.c  Assembler  Version HGASM0202      Page 14

2542  0011  3400     R  	clr _sigfox_ep_api_ctx[8].5
2543  0012              #line 2543 "d:\sigfox-ep-example-holtek-bc68f2150-master-tb0\middleware\sigfox-ep-lib\src\sigfox_ep_api.c"
2543  0012  3400     R  	clr _sigfox_ep_api_ctx[8].4
2543  0013              #pragma debug scope 38 35
2543  0013              ;begin block, line: 2543.-1
2543  0013              #pragma debug scope 39 38
2543  0013              ;begin block, line: 2543.-1
2004  0013              #line 2004 "d:\sigfox-ep-example-holtek-bc68f2150-master-tb0\middleware\sigfox-ep-lib\src\sigfox_ep_api.c"
2004  0013  3C00     R  	sz _sigfox_ep_api_ctx[9].1
2004  0014  2800     R  	jmp _L52
2006  0015              #line 2006 "d:\sigfox-ep-example-holtek-bc68f2150-master-tb0\middleware\sigfox-ep-lib\src\sigfox_ep_api.c"
2006  0015  0F01        	mov a,1
2006  0016  0300     R  	add a,_sigfox_ep_api_ctx[12]
2006  0017  0080     E  	mov rb,a
2006  0018  0F00        	mov a,0
2006  0019  1300     R  	adc a,_sigfox_ep_api_ctx[13]
2006  001A  0080     E  	mov rc,a
2006  001B  0700     E  	mov a,rb
2006  001C  0080     E  	mov rd,a
2006  001D  0700     E  	mov a,rc
2006  001E  0080     E  	mov re,a
2006  001F  0FFF        	mov a,255  
2006  0020  0680     E  	andm a,rd  
2006  0021  0F0F        	mov a,15  
2006  0022  0680     E  	andm a,re
2006  0023  0700     E  	mov a,rd
2006  0024  0080     R  	mov _sigfox_ep_api_ctx[12],a
2006  0025  0700     E  	mov a,re
2006  0026  0080     R  	mov _sigfox_ep_api_ctx[13],a
2011  0027              #line 2011 "d:\sigfox-ep-example-holtek-bc68f2150-master-tb0\middleware\sigfox-ep-lib\src\sigfox_ep_api.c"
2011  0027  3000     R  	set _sigfox_ep_api_ctx[9].1
2011  0028              _L52:
2018  0028              #line 2018 "d:\sigfox-ep-example-holtek-bc68f2150-master-tb0\middleware\sigfox-ep-lib\src\sigfox_ep_api.c"
2018  0028  1F00     R  	clr _sigfox_ep_api_ctx[51]
2019  0029              #line 2019 "d:\sigfox-ep-example-holtek-bc68f2150-master-tb0\middleware\sigfox-ep-lib\src\sigfox_ep_api.c"
2019  0029  1F00     R  	clr _sigfox_ep_api_ctx[52]
2019  002A              #pragma debug scope 40 39
2019  002A              ;begin block, line: 2019.-1
2019  002A              #pragma debug scope 41 40
2019  002A              ;begin block, line: 2019.-1
1096  002A              #line 1096 "d:\sigfox-ep-example-holtek-bc68f2150-master-tb0\middleware\sigfox-ep-lib\src\sigfox_ep_api.c"
1096  002A  0F02        	mov a,2
1096  002B  0300     R  	add a,_SIGFOX_EP_API_send_application_message_2[0]
1096  002C  0083        	mov mp,a
1096  002D  0F00        	mov a,0
1096  002E  1300     R  	adc a,_SIGFOX_EP_API_send_application_message_2[1]
1096  002F  0084        	mov sbp,a
1096  0030  2000     E  	call _Crom2Prom
1096  0031  0080     E  	mov rb,a
1096  0032  2000     E  	call _Crom2PromNext
1096  0033  0080     E  	mov rc,a
1096  0034  0700     E  	mov a,rb
1096  0035  0080     R  	mov _sigfox_ep_api_ctx[53],a
1096  0036  0700     E  	mov a,rc
1096  0037  0080     R  	mov _sigfox_ep_api_ctx[54],a
1096  0038  1F00     R  	clr _sigfox_ep_api_ctx[55]
1096  0039  1F00     R  	clr _sigfox_ep_api_ctx[56]
1096  003A              _L54:
1096  003A              #pragma debug scope 40 39
1096  003A              #pragma debug scope 39 38
"File: sigfox_ep_api.c  Assembler  Version HGASM0202      Page 15

1096  003A              #pragma debug scope 38 35
1096  003A              #pragma debug scope 35 34
2561  003A              #line 2561 "d:\sigfox-ep-example-holtek-bc68f2150-master-tb0\middleware\sigfox-ep-lib\src\sigfox_ep_api.c"
2561  003A  2000     R  	call __internal_process
2556  003B              #line 2556 "d:\sigfox-ep-example-holtek-bc68f2150-master-tb0\middleware\sigfox-ep-lib\src\sigfox_ep_api.c"
2556  003B  1700     R  	sdza _sigfox_ep_api_ctx[6]
2556  003C  2800     R  	jmp _L54
2556  003D  2800     R  	jmp _L55
2556  003E              _L57:
2556  003E              #pragma debug scope 34 33
2556  003E              #pragma debug scope 33 1
2556  003E  0003        	ret
2556  003F              _SIGFOX_EP_API_send_application_message endp
2556  003F              #line 2556 "d:\sigfox-ep-example-holtek-bc68f2150-master-tb0\middleware\sigfox-ep-lib\src\sigfox_ep_api.c"
2556  003F              #pragma debug scope 1 1
2556  003F              public _SIGFOX_EP_API_get_message_status
2556  003F              #pragma debug scope 42 1
3028  003F              #line 3028 "d:\sigfox-ep-example-holtek-bc68f2150-master-tb0\middleware\sigfox-ep-lib\src\sigfox_ep_api.c"
3028  0000              _SIGFOX_EP_API_get_message_status .section 'code'
3028  0000              _SIGFOX_EP_API_get_message_status proc
3031  0000              #line 3031 "d:\sigfox-ep-example-holtek-bc68f2150-master-tb0\middleware\sigfox-ep-lib\src\sigfox_ep_api.c"
3031  0000  0700     R  	mov a,_sigfox_ep_api_ctx[7]
3031  0001  0003        	ret
3031  0002              _SIGFOX_EP_API_get_message_status endp
3031  0002              #line 3031 "d:\sigfox-ep-example-holtek-bc68f2150-master-tb0\middleware\sigfox-ep-lib\src\sigfox_ep_api.c"
3031  0002              #pragma debug scope 1 1
3031  0000              @HCCINIT	.section 'data'
 199  0000              #line 199 "d:\sigfox-ep-example-holtek-bc68f2150-master-tb0\middleware\sigfox-ep-lib\src\sigfox_ep_api.c"
 199  0000              @HCCINIT_sigfox_ep_api_ctx .section 'data'
 199  0000              _sigfox_ep_api_ctx label byte
 199  0000              #pragma debug struct_end
 199  0000              #pragma debug struct_end
 199  0000              #pragma debug struct_end
 199  0000              #pragma debug struct_end
 199  0000              #pragma debug struct_end
 199  0000              #pragma debug struct_end
 199  0000              #pragma debug union_end
 199  0000              #pragma debug union_end
 199  0000              #pragma debug struct_end
 199  0000              #pragma debug struct_end
 199  0000              #pragma debug union_end
 199  0000              #pragma debug union_end
 199  0000              #pragma debug struct_end
 199  0000              #pragma debug struct_end
 199  0000              #pragma debug union_end
 199  0000              #pragma debug union_end
 199  0000              #pragma debug struct_end
 199  0000              #pragma debug struct_end
 199  0000              #pragma debug struct_end
 199  0000              #pragma debug struct_end
 199  0000              #pragma debug struct_end
 199  0000              #pragma debug struct_end
 199  0000              #pragma debug variable 67 1 _sigfox_ep_api_ctx "sigfox_ep_api_ctx"
 199  0000              	db 0
 199  0000              @ROMDATA_BASE .section inpage 'code'
 199  0000              	db 0
 199  0001              @HCCINIT_sigfox_ep_api_ctx .section 'data'
 199  0001              	db 0
 199  0001              @ROMDATA_BASE .section inpage 'code'
 199  0001              	db 0
"File: sigfox_ep_api.c  Assembler  Version HGASM0202      Page 16

 199  0002              @HCCINIT_sigfox_ep_api_ctx .section 'data'
 199  0002              	db 0
 199  0001              @ROMDATA_BASE .section inpage 'code'
 199  0001              	db 0
 199  0003              @HCCINIT_sigfox_ep_api_ctx .section 'data'
 199  0003              	db 0
 199  0002              @ROMDATA_BASE .section inpage 'code'
 199  0002              	db 0
 199  0004              @HCCINIT_sigfox_ep_api_ctx .section 'data'
 199  0004              	db 0
 199  0002              @ROMDATA_BASE .section inpage 'code'
 199  0002              	db 0
 199  0005              @HCCINIT_sigfox_ep_api_ctx .section 'data'
 199  0005              	db 0
 199  0003              @ROMDATA_BASE .section inpage 'code'
 199  0003              	db 0
 199  0006              @HCCINIT_sigfox_ep_api_ctx .section 'data'
 199  0006              	db 0
 199  0003              @ROMDATA_BASE .section inpage 'code'
 199  0003              	db 0
 199  0007              @HCCINIT_sigfox_ep_api_ctx .section 'data'
 199  0007              	db 0
 199  0004              @ROMDATA_BASE .section inpage 'code'
 199  0004              	db 0
 199  0008              @HCCINIT_sigfox_ep_api_ctx .section 'data'
 199  0008              	db 0
 199  0004              @ROMDATA_BASE .section inpage 'code'
 199  0004              	db 0
 199  0009              @HCCINIT_sigfox_ep_api_ctx .section 'data'
 199  0009              	db 0
 199  0005              @ROMDATA_BASE .section inpage 'code'
 199  0005              	db 0
 199  000A              @HCCINIT_sigfox_ep_api_ctx .section 'data'
 199  000A              	db 0
 199  0005              @ROMDATA_BASE .section inpage 'code'
 199  0005              	db 0
 199  000B              @HCCINIT_sigfox_ep_api_ctx .section 'data'
 199  000B              	db 0
 199  0006              @ROMDATA_BASE .section inpage 'code'
 199  0006              	db 0
 199  000C              @HCCINIT_sigfox_ep_api_ctx .section 'data'
 199  000C              	db 0
 199  0006              @ROMDATA_BASE .section inpage 'code'
 199  0006              	db 0
 199  000D              @HCCINIT_sigfox_ep_api_ctx .section 'data'
 199  000D              	db 0
 199  0007              @ROMDATA_BASE .section inpage 'code'
 199  0007              	db 0
 199  000E              @HCCINIT_sigfox_ep_api_ctx .section 'data'
 199  000E              	db 0
 199  0007              @ROMDATA_BASE .section inpage 'code'
 199  0007              	db 0
 199  000F              @HCCINIT_sigfox_ep_api_ctx .section 'data'
 199  000F              	db 0
 199  0008              @ROMDATA_BASE .section inpage 'code'
 199  0008              	db 0
 199  0010              @HCCINIT_sigfox_ep_api_ctx .section 'data'
 199  0010              	db 0
 199  0008              @ROMDATA_BASE .section inpage 'code'
 199  0008              	db 0
"File: sigfox_ep_api.c  Assembler  Version HGASM0202      Page 17

 199  0011              @HCCINIT_sigfox_ep_api_ctx .section 'data'
 199  0011              	db 0
 199  0009              @ROMDATA_BASE .section inpage 'code'
 199  0009              	db 0
 199  0012              @HCCINIT_sigfox_ep_api_ctx .section 'data'
 199  0012              	db 0
 199  0009              @ROMDATA_BASE .section inpage 'code'
 199  0009              	db 0
 199  0013              @HCCINIT_sigfox_ep_api_ctx .section 'data'
 199  0013              	db 0
 199  000A              @ROMDATA_BASE .section inpage 'code'
 199  000A              	db 0
 199  0014              @HCCINIT_sigfox_ep_api_ctx .section 'data'
 199  0014              	db 0
 199  000A              @ROMDATA_BASE .section inpage 'code'
 199  000A              	db 0
 199  0015              @HCCINIT_sigfox_ep_api_ctx .section 'data'
 199  0015              	db 0
 199  000B              @ROMDATA_BASE .section inpage 'code'
 199  000B              	db 0
 199  0016              @HCCINIT_sigfox_ep_api_ctx .section 'data'
 199  0016              	db 0
 199  000B              @ROMDATA_BASE .section inpage 'code'
 199  000B              	db 0
 199  0017              @HCCINIT_sigfox_ep_api_ctx .section 'data'
 199  0017              	db 0
 199  000C              @ROMDATA_BASE .section inpage 'code'
 199  000C              	db 0
 199  0018              @HCCINIT_sigfox_ep_api_ctx .section 'data'
 199  0018              	db 0
 199  000C              @ROMDATA_BASE .section inpage 'code'
 199  000C              	db 0
 199  0019              @HCCINIT_sigfox_ep_api_ctx .section 'data'
 199  0019              	db 0
 199  000D              @ROMDATA_BASE .section inpage 'code'
 199  000D              	db 0
 199  001A              @HCCINIT_sigfox_ep_api_ctx .section 'data'
 199  001A              	db 0
 199  000D              @ROMDATA_BASE .section inpage 'code'
 199  000D              	db 0
 199  001B              @HCCINIT_sigfox_ep_api_ctx .section 'data'
 199  001B              	db 0
 199  000E              @ROMDATA_BASE .section inpage 'code'
 199  000E              	db 0
 199  001C              @HCCINIT_sigfox_ep_api_ctx .section 'data'
 199  001C              	db 0
 199  000E              @ROMDATA_BASE .section inpage 'code'
 199  000E              	db 0
 199  001D              @HCCINIT_sigfox_ep_api_ctx .section 'data'
 199  001D              	db 0
 199  000F              @ROMDATA_BASE .section inpage 'code'
 199  000F              	db 0
 199  001E              @HCCINIT_sigfox_ep_api_ctx .section 'data'
 199  001E              	db 0
 199  000F              @ROMDATA_BASE .section inpage 'code'
 199  000F              	db 0
 199  001F              @HCCINIT_sigfox_ep_api_ctx .section 'data'
 199  001F              	db 0
 199  0010              @ROMDATA_BASE .section inpage 'code'
 199  0010              	db 0
"File: sigfox_ep_api.c  Assembler  Version HGASM0202      Page 18

 199  0020              @HCCINIT_sigfox_ep_api_ctx .section 'data'
 199  0020              	db 0
 199  0010              @ROMDATA_BASE .section inpage 'code'
 199  0010              	db 0
 199  0021              @HCCINIT_sigfox_ep_api_ctx .section 'data'
 199  0021              	db 0
 199  0011              @ROMDATA_BASE .section inpage 'code'
 199  0011              	db 0
 199  0022              @HCCINIT_sigfox_ep_api_ctx .section 'data'
 199  0022              	db 0
 199  0011              @ROMDATA_BASE .section inpage 'code'
 199  0011              	db 0
 199  0023              @HCCINIT_sigfox_ep_api_ctx .section 'data'
 199  0023              	db 0
 199  0012              @ROMDATA_BASE .section inpage 'code'
 199  0012              	db 0
 199  0024              @HCCINIT_sigfox_ep_api_ctx .section 'data'
 199  0024              	db 0
 199  0012              @ROMDATA_BASE .section inpage 'code'
 199  0012              	db 0
 199  0025              @HCCINIT_sigfox_ep_api_ctx .section 'data'
 199  0025              	db 0
 199  0013              @ROMDATA_BASE .section inpage 'code'
 199  0013              	db 0
 199  0026              @HCCINIT_sigfox_ep_api_ctx .section 'data'
 199  0026              	db 0
 199  0013              @ROMDATA_BASE .section inpage 'code'
 199  0013              	db 0
 199  0027              @HCCINIT_sigfox_ep_api_ctx .section 'data'
 199  0027              	db 0
 199  0014              @ROMDATA_BASE .section inpage 'code'
 199  0014              	db 0
 199  0028              @HCCINIT_sigfox_ep_api_ctx .section 'data'
 199  0028              	db 0
 199  0014              @ROMDATA_BASE .section inpage 'code'
 199  0014              	db 0
 199  0029              @HCCINIT_sigfox_ep_api_ctx .section 'data'
 199  0029              	db 0
 199  0015              @ROMDATA_BASE .section inpage 'code'
 199  0015              	db 0
 199  002A              @HCCINIT_sigfox_ep_api_ctx .section 'data'
 199  002A              	db 0
 199  0015              @ROMDATA_BASE .section inpage 'code'
 199  0015              	db 0
 199  002B              @HCCINIT_sigfox_ep_api_ctx .section 'data'
 199  002B              	db 0
 199  0016              @ROMDATA_BASE .section inpage 'code'
 199  0016              	db 0
 199  002C              @HCCINIT_sigfox_ep_api_ctx .section 'data'
 199  002C              	db 0
 199  0016              @ROMDATA_BASE .section inpage 'code'
 199  0016              	db 0
 199  002D              @HCCINIT_sigfox_ep_api_ctx .section 'data'
 199  002D              	db 0
 199  0017              @ROMDATA_BASE .section inpage 'code'
 199  0017              	db 0
 199  002E              @HCCINIT_sigfox_ep_api_ctx .section 'data'
 199  002E              	db 0
 199  0017              @ROMDATA_BASE .section inpage 'code'
 199  0017              	db 0
"File: sigfox_ep_api.c  Assembler  Version HGASM0202      Page 19

 199  002F              @HCCINIT_sigfox_ep_api_ctx .section 'data'
 199  002F              	db 0
 199  0018              @ROMDATA_BASE .section inpage 'code'
 199  0018              	db 0
 199  0030              @HCCINIT_sigfox_ep_api_ctx .section 'data'
 199  0030              	db 0
 199  0018              @ROMDATA_BASE .section inpage 'code'
 199  0018              	db 0
 199  0031              @HCCINIT_sigfox_ep_api_ctx .section 'data'
 199  0031              	db 0
 199  0019              @ROMDATA_BASE .section inpage 'code'
 199  0019              	db 0
 199  0032              @HCCINIT_sigfox_ep_api_ctx .section 'data'
 199  0032              	db 0
 199  0019              @ROMDATA_BASE .section inpage 'code'
 199  0019              	db 0
 199  0033              @HCCINIT_sigfox_ep_api_ctx .section 'data'
 199  0033              	db 0
 199  001A              @ROMDATA_BASE .section inpage 'code'
 199  001A              	db 0
 199  0034              @HCCINIT_sigfox_ep_api_ctx .section 'data'
 199  0034              	db 0
 199  001A              @ROMDATA_BASE .section inpage 'code'
 199  001A              	db 0
 199  0035              @HCCINIT_sigfox_ep_api_ctx .section 'data'
 199  0035              	db 0
 199  001B              @ROMDATA_BASE .section inpage 'code'
 199  001B              	db 0
 199  0036              @HCCINIT_sigfox_ep_api_ctx .section 'data'
 199  0036              	db 0
 199  001B              @ROMDATA_BASE .section inpage 'code'
 199  001B              	db 0
 199  0037              @HCCINIT_sigfox_ep_api_ctx .section 'data'
 199  0037              	db 0
 199  001C              @ROMDATA_BASE .section inpage 'code'
 199  001C              	db 0
 199  0038              @HCCINIT_sigfox_ep_api_ctx .section 'data'
 199  0038              	db 0
 199  001C              @ROMDATA_BASE .section inpage 'code'
 199  001C              	db 0
 199  0039              @HCCINIT_sigfox_ep_api_ctx .section 'data'
 199  0039              extern _SIGFOX_EP_BITSTREAM_build_application_frame_2:byte
 199  0039              extern _SIGFOX_EP_BITSTREAM_build_application_frame:near
 199  0039              extern _SIGFOX_EP_FREQUENCY_compute_uplink_2:byte
 199  0039              extern _SIGFOX_EP_FREQUENCY_compute_uplink:near
 199  0039              extern _SIGFOX_EP_FREQUENCY_get_random_value_2:byte
 199  0039              extern _SIGFOX_EP_FREQUENCY_get_random_value:near
 199  0039              extern _RF_API_wake_up:near
 199  0039              extern _RF_API_init_2:byte
 199  0039              extern _RF_API_init:near
 199  0039              extern _RF_API_send_2:byte
 199  0039              extern _RF_API_send:near
 199  0039              extern _RF_API_de_init:near
 199  0039              extern _RF_API_sleep:near
 199  0039              extern _MCU_API_set_nvm_2:byte
 199  0039              extern _MCU_API_set_nvm:near
 199  0039              extern _MCU_API_timer_start_2:byte
 199  0039              extern _MCU_API_timer_start:near
 199  0039              extern _MCU_API_timer_wait_cplt:near
 199  0039              extern _MCU_API_timer_stop:near
"File: sigfox_ep_api.c  Assembler  Version HGASM0202      Page 20

 199  0039              extern _MCU_API_get_nvm_2:byte
 199  0039              extern _MCU_API_get_nvm:near
 199  0039              extern _MCU_API_get_ep_id_2:byte
 199  0039              extern _MCU_API_get_ep_id:near
 199  0039              extern _SIGFOX_EP_FREQUENCY_init_2:byte
 199  0039              extern _SIGFOX_EP_FREQUENCY_init:near
 199  0039              
 199  0039              ; 
 199  0039              ; Generated by holtek-gcc v3.19, Thu May 23 14:41:51 2024
 199  0039              ; Rebuild 718
 199  0039              ; end of file


        0 Errors, 0