"File: TI_aes_128_encr_only.c  Assembler  Version HGASM0202      Page 1


   1  0000              ; Generated by holtek-gcc v3.19, Thu May 23 14:41:50 2024
   2  0000              ; 
   3  0000              ; Configuration:
   4  0000              ;       with long instruction
   5  0000              ;       Single ROM, Multi-RAM
   6  0000              ;       bits_per_rom_unit:16
   7  0000              ;       with mp1
   8  0000              ;       with tbhp, address(0x9)
   9  0000              ;          Use tabrd-const
  10  0000              ;       
  11  0000              ; SFR address of long-instruction arch:
  12  0000              ;    mp0 = -1,1,0
  13  0000              ;    mp1 = 4,3,2
  14  0000              ;    mp2 = 14,13,12
  15  0000              ;    tbp = 9,7,8
  16  0000              ;    acc = 5
  17  0000              ;    pcl = 6
  18  0000              ;    status = 10
  19  0000              ;    bp = 11
  20  0000              ;    intc = 16
  21  0000              ;       
  22  0000              ;       
  23  0000              ; use 'tabrdc' instead of 'tabrd'
  24  0000              ;       
  25  0000              
  26  0000              #pragma translator "holtek-gcc 4.6.4" "3.19" "build 20130711"
  27  0000              ; Rebuild 718
  28  0000              
  29  0000              ir equ [2]
  30  0000              mp equ [3]
  31  0000              sbp equ [4]
  32  0000              acc equ [5]
  33  0000              bp equ [11]
  34  0000              tblp equ [7]
  35  0000              tbhp equ [9]
  36  0000              status equ [10]
  37  0000              c equ [10].0
  38  0000              ac equ [10].1
  39  0000              z equ [10].2
  40  0000              ov equ [10].3
  41  0000              cz equ [10].6
  42  0000              sc equ [10].7
  43  0000              intc equ [16]
  44  0000              
  45  0000              extern ra:byte
  46  0000              extern rb:byte
  47  0000              extern rc:byte
  48  0000              extern rd:byte
  49  0000              extern re:byte
  50  0000              extern rf:byte
  51  0000              extern rg:byte
  52  0000              extern rh:byte
  53  0000              extern _Crom2Prom:near
  54  0000              extern _Crom2PromNext:near
  55  0000              
  56  0000              RAMBANK 0 @BITDATASEC, @BITDATASEC1
  57  0000              @HCCINIT	.section 'data'
  58  0000              @HCCINIT0	.section 'data'
  59  0000              @BITDATASEC	 .section 'data'
"File: TI_aes_128_encr_only.ASM  Assembler  Version HGASM0202      Page 2

  60  0000              @BITDATASEC1	 .section 'data'
  61  0000              
  62  0000              #pragma debug scope 1 1
  63  0000              public _galois_mul2
  64  0000              #pragma debug scope 2 1

  62  0000              #line 62 "d:\sigfox-ep-example-holtek-bc68f2150-master-tb0\middleware\sigfox\manuf\TI_aes_128_encr_only.c"
  62  0000              _galois_mul2 .section 'code'
  62  0000              _galois_mul2 proc
  62  0000  00              local _galois_mul2_2 db 1 dup(?)	; 0,1
  62  0000  0080     E  	mov ra,a
  62  0001  0080     E  	mov rb,a
  62  0002              #pragma debug variable 8 2 _galois_mul2_2+0 "value"
  67  0002              #line 67 "d:\sigfox-ep-example-holtek-bc68f2150-master-tb0\middleware\sigfox\manuf\TI_aes_128_encr_only.c"
  67  0002  3C00     E  	sz ra.7
  67  0003  1F80     E  	set ra
  67  0004  3800     E  	snz ra.7
  67  0005  1F00     E  	clr ra
  71  0006              #line 71 "d:\sigfox-ep-example-holtek-bc68f2150-master-tb0\middleware\sigfox\manuf\TI_aes_128_encr_only.c"
  71  0006  0700     E  	mov a,rb
  71  0007  0380     E  	addm a,rb
  69  0008              #line 69 "d:\sigfox-ep-example-holtek-bc68f2150-master-tb0\middleware\sigfox\manuf\TI_aes_128_encr_only.c"
  69  0008  0F1B        	mov a,27
  69  0009  0680     E  	andm a,ra
  71  000A              #line 71 "d:\sigfox-ep-example-holtek-bc68f2150-master-tb0\middleware\sigfox\manuf\TI_aes_128_encr_only.c"
  71  000A  0700     E  	mov a,ra
  71  000B  0480     E  	xorm a,rb
  72  000C              #line 72 "d:\sigfox-ep-example-holtek-bc68f2150-master-tb0\middleware\sigfox\manuf\TI_aes_128_encr_only.c"
  72  000C  0700     E  	mov a,rb
  72  000D  0003        	ret
  72  000E              _galois_mul2 endp
  72  000E              #line 72 "d:\sigfox-ep-example-holtek-bc68f2150-master-tb0\middleware\sigfox\manuf\TI_aes_128_encr_only.c"
  72  000E              #pragma debug scope 1 1
  72  000E              public _aes_encrypt
  72  000E              #pragma debug scope 3 1
  77  000E              #line 77 "d:\sigfox-ep-example-holtek-bc68f2150-master-tb0\middleware\sigfox\manuf\TI_aes_128_encr_only.c"
  77  0000              _aes_encrypt .section 'code'
  77  0000              _aes_encrypt proc
  77  0000              public _aes_encrypt_2
  77  0000  0023[           local _aes_encrypt_2 db 35 dup(?)	; 4,31
            00
            ]
  77  0023              #pragma debug pointer 42 8 3
  77  0023              #pragma debug pointer 42 8 3
  77  0023              #pragma debug variable 42 3 _aes_encrypt_2+0 "state"
  77  0023              #pragma debug variable 42 3 _aes_encrypt_2+2 "Localkey"
  77  0023              #pragma debug variable 8 3 _aes_encrypt_2+30 "round"
  77  0023              #pragma debug variable 8 3 _aes_encrypt_2+32 "rcon"
  77  0023              #pragma debug array 43 8 16 3
  77  0023              #pragma debug array 43 8 16 3
  77  0023              #pragma debug variable 43 3 _aes_encrypt_2+4 "key"
  77  0000  0F10        	mov a,16
  77  0001  0080     E  	mov ra,a
  83  0002              #line 83 "d:\sigfox-ep-example-holtek-bc68f2150-master-tb0\middleware\sigfox\manuf\TI_aes_128_encr_only.c"
  83  0002  1F00     E  	clr rf
  85  0003              #line 85 "d:\sigfox-ep-example-holtek-bc68f2150-master-tb0\middleware\sigfox\manuf\TI_aes_128_encr_only.c"
  85  0003  0F00     R  	mov a,low offset _aes_encrypt_2
  85  0004  0080     E  	mov rd,a
  85  0005  0F00     R  	mov a,high offset _aes_encrypt_2
  85  0006  0080     E  	mov re,a
"File: TI_aes_128_encr_only.c  Assembler  Version HGASM0202      Page 3

  85  0007  0F04        	mov a,4
  85  0008  0380     E  	addm a,rd
  85  0009  0F00        	mov a,0
  85  000A  1380     E  	adcm a,re
  85  000B              _L5:
  85  000B              #line 85 "d:\sigfox-ep-example-holtek-bc68f2150-master-tb0\middleware\sigfox\manuf\TI_aes_128_encr_only.c"
  85  000B  0700     E  	mov a,rf
  85  000C  0080     E  	mov rb,a
  85  000D  1F00     E  	clr rc
  85  000E  0700     E  	mov a,rb
  85  000F  0300     R  	add a,_aes_encrypt_2[2]
  85  0010  0083        	mov mp,a
  85  0011  0700     E  	mov a,rc
  85  0012  1300     R  	adc a,_aes_encrypt_2[3]
  85  0013  0084        	mov sbp,a
  85  0014  2000     E  	call _Crom2Prom
  85  0015  0080     E  	mov rg,a
  85  0016  0700     E  	mov a,rb
  85  0017  0300     E  	add a,rd
  85  0018  0083        	mov mp,a
  85  0019  0700     E  	mov a,rc
  85  001A  1300     E  	adc a,re
  85  001B  0084        	mov sbp,a
  85  001C  0700     E  	mov a,rg
  85  001D  0082        	mov ir,a
  83  001E              #line 83 "d:\sigfox-ep-example-holtek-bc68f2150-master-tb0\middleware\sigfox\manuf\TI_aes_128_encr_only.c"
  83  001E  1480     E  	inc rf
  83  001F  1780     E  	sdz ra
  83  0020  2800     R  	jmp _L5
  83  0021  0F01        	mov a,1
  83  0022  0080     R  	mov _aes_encrypt_2[32],a
  83  0023  1F00     R  	clr _aes_encrypt_2[30]
  95  0024              #line 95 "d:\sigfox-ep-example-holtek-bc68f2150-master-tb0\middleware\sigfox\manuf\TI_aes_128_encr_only.c"
  95  0024  0F00     R  	mov a,low offset _aes_encrypt_2
  95  0025  0080     E  	mov ra,a
  95  0026  0F00     R  	mov a,high offset _aes_encrypt_2
  95  0027  0080     E  	mov rb,a
  95  0028  0F04        	mov a,4
  95  0029  0300     E  	add a,ra
  95  002A  0080     R  	mov _aes_encrypt_2[33],a
  95  002B  0F00        	mov a,0
  95  002C  1300     E  	adc a,rb
  95  002D  0080     R  	mov _aes_encrypt_2[34],a
  95  002E              _L4:
  83  002E              #line 83 "d:\sigfox-ep-example-holtek-bc68f2150-master-tb0\middleware\sigfox\manuf\TI_aes_128_encr_only.c"
  83  002E  0F10        	mov a,16
  83  002F  0080     E  	mov rf,a
  83  0030  1F00     E  	clr ra
  83  0031              _L13:
  95  0031              #line 95 "d:\sigfox-ep-example-holtek-bc68f2150-master-tb0\middleware\sigfox\manuf\TI_aes_128_encr_only.c"
  95  0031  0700     E  	mov a,ra
  95  0032  0080     E  	mov rd,a
  95  0033  1F00     E  	clr re
  95  0034  0700     E  	mov a,rd
  95  0035  0300     R  	add a,_aes_encrypt_2[0]
  95  0036  0080     E  	mov rb,a
  95  0037  0700     E  	mov a,re
  95  0038  1300     R  	adc a,_aes_encrypt_2[1]
  95  0039  0080     E  	mov rc,a
  95  003A  0700     E  	mov a,rb
"File: TI_aes_128_encr_only.c  Assembler  Version HGASM0202      Page 4

  95  003B  0083        	mov mp,a
  95  003C  0700     E  	mov a,rc
  95  003D  0084        	mov sbp,a
  95  003E  2000     E  	call _Crom2Prom
  95  003F  0080     E  	mov rg,a
  95  0040  0700     E  	mov a,rd
  95  0041  0300     R  	add a,_aes_encrypt_2[33]
  95  0042  0083        	mov mp,a
  95  0043  0700     E  	mov a,re
  95  0044  1300     R  	adc a,_aes_encrypt_2[34]
  95  0045  0084        	mov sbp,a
  95  0046  2000     E  	call _Crom2Prom
  95  0047  0080     E  	mov rd,a
  95  0048  0700     E  	mov a,rg
  95  0049  0480     E  	xorm a,rd
  95  004A  0F00     R  	mov a,low offset _sbox
  95  004B  0300     E  	add a,rd
  95  004C  0083        	mov mp,a
  95  004D  0F00     R  	mov a,high offset _sbox
  95  004E  1F04        	clr sbp
  95  004F  1384        	adcm a,sbp
  95  0050  2000     E  	call _Crom2Prom
  95  0051  0080     E  	mov rd,a
  95  0052  0700     E  	mov a,rb
  95  0053  0083        	mov mp,a
  95  0054  0700     E  	mov a,rc
  95  0055  0084        	mov sbp,a
  95  0056  0700     E  	mov a,rd
  95  0057  0082        	mov ir,a
  94  0058              #line 94 "d:\sigfox-ep-example-holtek-bc68f2150-master-tb0\middleware\sigfox\manuf\TI_aes_128_encr_only.c"
  94  0058  1480     E  	inc ra
  94  0059  1780     E  	sdz rf
  94  005A  2800     R  	jmp _L13
  98  005B              #line 98 "d:\sigfox-ep-example-holtek-bc68f2150-master-tb0\middleware\sigfox\manuf\TI_aes_128_encr_only.c"
  98  005B  0700     R  	mov a,_aes_encrypt_2[0]
  98  005C  0080     E  	mov rb,a
  98  005D  0700     R  	mov a,_aes_encrypt_2[1]
  98  005E  0080     E  	mov rc,a
  98  005F  0F01        	mov a,1
  98  0060  0300     E  	add a,rb
  98  0061  0080     E  	mov rd,a
  98  0062  0F00        	mov a,0
  98  0063  1300     E  	adc a,rc
  98  0064  0080     E  	mov re,a
  98  0065  0700     E  	mov a,rd
  98  0066  0083        	mov mp,a
  98  0067  0700     E  	mov a,re
  98  0068  0084        	mov sbp,a
  98  0069  2000     E  	call _Crom2Prom
  98  006A  0080     E  	mov ra,a
  99  006B              #line 99 "d:\sigfox-ep-example-holtek-bc68f2150-master-tb0\middleware\sigfox\manuf\TI_aes_128_encr_only.c"
  99  006B  0F05        	mov a,5
  99  006C  0300     E  	add a,rb
  99  006D  0083        	mov mp,a
  99  006E  0F00        	mov a,0
  99  006F  1300     E  	adc a,rc
  99  0070  0084        	mov sbp,a
  99  0071  2000     E  	call _Crom2Prom
  99  0072  0080     E  	mov rb,a
  99  0073  0700     E  	mov a,rd
"File: TI_aes_128_encr_only.c  Assembler  Version HGASM0202      Page 5

  99  0074  0083        	mov mp,a
  99  0075  0700     E  	mov a,re
  99  0076  0084        	mov sbp,a
  99  0077  0700     E  	mov a,rb
  99  0078  0082        	mov ir,a
 100  0079              #line 100 "d:\sigfox-ep-example-holtek-bc68f2150-master-tb0\middleware\sigfox\manuf\TI_aes_128_encr_only.c"
 100  0079  0700     R  	mov a,_aes_encrypt_2[0]
 100  007A  0080     E  	mov rb,a
 100  007B  0700     R  	mov a,_aes_encrypt_2[1]
 100  007C  0080     E  	mov rc,a
 100  007D  0F09        	mov a,9
 100  007E  0300     E  	add a,rb
 100  007F  0083        	mov mp,a
 100  0080  0F00        	mov a,0
 100  0081  1300     E  	adc a,rc
 100  0082  0084        	mov sbp,a
 100  0083  2000     E  	call _Crom2Prom
 100  0084  0080     E  	mov rd,a
 100  0085  0F05        	mov a,5
 100  0086  0300     E  	add a,rb
 100  0087  0083        	mov mp,a
 100  0088  0F00        	mov a,0
 100  0089  1300     E  	adc a,rc
 100  008A  0084        	mov sbp,a
 100  008B  0700     E  	mov a,rd
 100  008C  0082        	mov ir,a
 101  008D              #line 101 "d:\sigfox-ep-example-holtek-bc68f2150-master-tb0\middleware\sigfox\manuf\TI_aes_128_encr_only.c"
 101  008D  0700     R  	mov a,_aes_encrypt_2[0]
 101  008E  0080     E  	mov rb,a
 101  008F  0700     R  	mov a,_aes_encrypt_2[1]
 101  0090  0080     E  	mov rc,a
 101  0091  0F0D        	mov a,13
 101  0092  0300     E  	add a,rb
 101  0093  0083        	mov mp,a
 101  0094  0F00        	mov a,0
 101  0095  1300     E  	adc a,rc
 101  0096  0084        	mov sbp,a
 101  0097  2000     E  	call _Crom2Prom
 101  0098  0080     E  	mov rd,a
 101  0099  0F09        	mov a,9
 101  009A  0300     E  	add a,rb
 101  009B  0083        	mov mp,a
 101  009C  0F00        	mov a,0
 101  009D  1300     E  	adc a,rc
 101  009E  0084        	mov sbp,a
 101  009F  0700     E  	mov a,rd
 101  00A0  0082        	mov ir,a
 102  00A1              #line 102 "d:\sigfox-ep-example-holtek-bc68f2150-master-tb0\middleware\sigfox\manuf\TI_aes_128_encr_only.c"
 102  00A1  0F0D        	mov a,13
 102  00A2  0300     R  	add a,_aes_encrypt_2[0]
 102  00A3  0083        	mov mp,a
 102  00A4  0F00        	mov a,0
 102  00A5  1300     R  	adc a,_aes_encrypt_2[1]
 102  00A6  0084        	mov sbp,a
 102  00A7  0700     E  	mov a,ra
 102  00A8  0082        	mov ir,a
 104  00A9              #line 104 "d:\sigfox-ep-example-holtek-bc68f2150-master-tb0\middleware\sigfox\manuf\TI_aes_128_encr_only.c"
 104  00A9  0700     R  	mov a,_aes_encrypt_2[0]
 104  00AA  0080     E  	mov rb,a
 104  00AB  0700     R  	mov a,_aes_encrypt_2[1]
"File: TI_aes_128_encr_only.c  Assembler  Version HGASM0202      Page 6

 104  00AC  0080     E  	mov rc,a
 104  00AD  0F02        	mov a,2
 104  00AE  0300     E  	add a,rb
 104  00AF  0080     E  	mov rd,a
 104  00B0  0F00        	mov a,0
 104  00B1  1300     E  	adc a,rc
 104  00B2  0080     E  	mov re,a
 104  00B3  0700     E  	mov a,rd
 104  00B4  0083        	mov mp,a
 104  00B5  0700     E  	mov a,re
 104  00B6  0084        	mov sbp,a
 104  00B7  2000     E  	call _Crom2Prom
 104  00B8  0080     E  	mov rf,a
 105  00B9              #line 105 "d:\sigfox-ep-example-holtek-bc68f2150-master-tb0\middleware\sigfox\manuf\TI_aes_128_encr_only.c"
 105  00B9  0F06        	mov a,6
 105  00BA  0300     E  	add a,rb
 105  00BB  0083        	mov mp,a
 105  00BC  0F00        	mov a,0
 105  00BD  1300     E  	adc a,rc
 105  00BE  0084        	mov sbp,a
 105  00BF  2000     E  	call _Crom2Prom
 105  00C0  0080     E  	mov ra,a
 106  00C1              #line 106 "d:\sigfox-ep-example-holtek-bc68f2150-master-tb0\middleware\sigfox\manuf\TI_aes_128_encr_only.c"
 106  00C1  0F0A        	mov a,10
 106  00C2  0300     E  	add a,rb
 106  00C3  0083        	mov mp,a
 106  00C4  0F00        	mov a,0
 106  00C5  1300     E  	adc a,rc
 106  00C6  0084        	mov sbp,a
 106  00C7  2000     E  	call _Crom2Prom
 106  00C8  0080     E  	mov rb,a
 106  00C9  0700     E  	mov a,rd
 106  00CA  0083        	mov mp,a
 106  00CB  0700     E  	mov a,re
 106  00CC  0084        	mov sbp,a
 106  00CD  0700     E  	mov a,rb
 106  00CE  0082        	mov ir,a
 107  00CF              #line 107 "d:\sigfox-ep-example-holtek-bc68f2150-master-tb0\middleware\sigfox\manuf\TI_aes_128_encr_only.c"
 107  00CF  0700     R  	mov a,_aes_encrypt_2[0]
 107  00D0  0080     E  	mov rb,a
 107  00D1  0700     R  	mov a,_aes_encrypt_2[1]
 107  00D2  0080     E  	mov rc,a
 107  00D3  0F0E        	mov a,14
 107  00D4  0300     E  	add a,rb
 107  00D5  0083        	mov mp,a
 107  00D6  0F00        	mov a,0
 107  00D7  1300     E  	adc a,rc
 107  00D8  0084        	mov sbp,a
 107  00D9  2000     E  	call _Crom2Prom
 107  00DA  0080     E  	mov rd,a
 107  00DB  0F06        	mov a,6
 107  00DC  0300     E  	add a,rb
 107  00DD  0083        	mov mp,a
 107  00DE  0F00        	mov a,0
 107  00DF  1300     E  	adc a,rc
 107  00E0  0084        	mov sbp,a
 107  00E1  0700     E  	mov a,rd
 107  00E2  0082        	mov ir,a
 108  00E3              #line 108 "d:\sigfox-ep-example-holtek-bc68f2150-master-tb0\middleware\sigfox\manuf\TI_aes_128_encr_only.c"
 108  00E3  0F0A        	mov a,10
"File: TI_aes_128_encr_only.c  Assembler  Version HGASM0202      Page 7

 108  00E4  0300     R  	add a,_aes_encrypt_2[0]
 108  00E5  0083        	mov mp,a
 108  00E6  0F00        	mov a,0
 108  00E7  1300     R  	adc a,_aes_encrypt_2[1]
 108  00E8  0084        	mov sbp,a
 108  00E9  0700     E  	mov a,rf
 108  00EA  0082        	mov ir,a
 109  00EB              #line 109 "d:\sigfox-ep-example-holtek-bc68f2150-master-tb0\middleware\sigfox\manuf\TI_aes_128_encr_only.c"
 109  00EB  0F0E        	mov a,14
 109  00EC  0300     R  	add a,_aes_encrypt_2[0]
 109  00ED  0083        	mov mp,a
 109  00EE  0F00        	mov a,0
 109  00EF  1300     R  	adc a,_aes_encrypt_2[1]
 109  00F0  0084        	mov sbp,a
 109  00F1  0700     E  	mov a,ra
 109  00F2  0082        	mov ir,a
 111  00F3              #line 111 "d:\sigfox-ep-example-holtek-bc68f2150-master-tb0\middleware\sigfox\manuf\TI_aes_128_encr_only.c"
 111  00F3  0700     R  	mov a,_aes_encrypt_2[0]
 111  00F4  0080     E  	mov rb,a
 111  00F5  0700     R  	mov a,_aes_encrypt_2[1]
 111  00F6  0080     E  	mov rc,a
 111  00F7  0F0F        	mov a,15
 111  00F8  0300     E  	add a,rb
 111  00F9  0080     E  	mov rd,a
 111  00FA  0F00        	mov a,0
 111  00FB  1300     E  	adc a,rc
 111  00FC  0080     E  	mov re,a
 111  00FD  0700     E  	mov a,rd
 111  00FE  0083        	mov mp,a
 111  00FF  0700     E  	mov a,re
 111  0100  0084        	mov sbp,a
 111  0101  2000     E  	call _Crom2Prom
 111  0102  0080     E  	mov ra,a
 112  0103              #line 112 "d:\sigfox-ep-example-holtek-bc68f2150-master-tb0\middleware\sigfox\manuf\TI_aes_128_encr_only.c"
 112  0103  0F0B        	mov a,11
 112  0104  0300     E  	add a,rb
 112  0105  0083        	mov mp,a
 112  0106  0F00        	mov a,0
 112  0107  1300     E  	adc a,rc
 112  0108  0084        	mov sbp,a
 112  0109  2000     E  	call _Crom2Prom
 112  010A  0080     E  	mov rb,a
 112  010B  0700     E  	mov a,rd
 112  010C  0083        	mov mp,a
 112  010D  0700     E  	mov a,re
 112  010E  0084        	mov sbp,a
 112  010F  0700     E  	mov a,rb
 112  0110  0082        	mov ir,a
 113  0111              #line 113 "d:\sigfox-ep-example-holtek-bc68f2150-master-tb0\middleware\sigfox\manuf\TI_aes_128_encr_only.c"
 113  0111  0700     R  	mov a,_aes_encrypt_2[0]
 113  0112  0080     E  	mov rb,a
 113  0113  0700     R  	mov a,_aes_encrypt_2[1]
 113  0114  0080     E  	mov rc,a
 113  0115  0F07        	mov a,7
 113  0116  0300     E  	add a,rb
 113  0117  0083        	mov mp,a
 113  0118  0F00        	mov a,0
 113  0119  1300     E  	adc a,rc
 113  011A  0084        	mov sbp,a
 113  011B  2000     E  	call _Crom2Prom
"File: TI_aes_128_encr_only.c  Assembler  Version HGASM0202      Page 8

 113  011C  0080     E  	mov rd,a
 113  011D  0F0B        	mov a,11
 113  011E  0300     E  	add a,rb
 113  011F  0083        	mov mp,a
 113  0120  0F00        	mov a,0
 113  0121  1300     E  	adc a,rc
 113  0122  0084        	mov sbp,a
 113  0123  0700     E  	mov a,rd
 113  0124  0082        	mov ir,a
 114  0125              #line 114 "d:\sigfox-ep-example-holtek-bc68f2150-master-tb0\middleware\sigfox\manuf\TI_aes_128_encr_only.c"
 114  0125  0700     R  	mov a,_aes_encrypt_2[0]
 114  0126  0080     E  	mov rb,a
 114  0127  0700     R  	mov a,_aes_encrypt_2[1]
 114  0128  0080     E  	mov rc,a
 114  0129  0F03        	mov a,3
 114  012A  0300     E  	add a,rb
 114  012B  0083        	mov mp,a
 114  012C  0F00        	mov a,0
 114  012D  1300     E  	adc a,rc
 114  012E  0084        	mov sbp,a
 114  012F  2000     E  	call _Crom2Prom
 114  0130  0080     E  	mov rd,a
 114  0131  0F07        	mov a,7
 114  0132  0300     E  	add a,rb
 114  0133  0083        	mov mp,a
 114  0134  0F00        	mov a,0
 114  0135  1300     E  	adc a,rc
 114  0136  0084        	mov sbp,a
 114  0137  0700     E  	mov a,rd
 114  0138  0082        	mov ir,a
 115  0139              #line 115 "d:\sigfox-ep-example-holtek-bc68f2150-master-tb0\middleware\sigfox\manuf\TI_aes_128_encr_only.c"
 115  0139  0F03        	mov a,3
 115  013A  0300     R  	add a,_aes_encrypt_2[0]
 115  013B  0083        	mov mp,a
 115  013C  0F00        	mov a,0
 115  013D  1300     R  	adc a,_aes_encrypt_2[1]
 115  013E  0084        	mov sbp,a
 115  013F  0700     E  	mov a,ra
 115  0140  0082        	mov ir,a
 118  0141              #line 118 "d:\sigfox-ep-example-holtek-bc68f2150-master-tb0\middleware\sigfox\manuf\TI_aes_128_encr_only.c"
 118  0141  1F00     R  	clr _aes_encrypt_2[20]
 118  0142  0700     R  	mov a,_aes_encrypt_2[30]
 118  0143  0A09        	sub a,9
 118  0144  390A        	snz z
 118  0145  2800     R  	jmp _L18
 118  0146              _L9:
 133  0146              #line 133 "d:\sigfox-ep-example-holtek-bc68f2150-master-tb0\middleware\sigfox\manuf\TI_aes_128_encr_only.c"
 133  0146  0F00     R  	mov a,low offset _sbox
 133  0147  0300     R  	add a,_aes_encrypt_2[17]
 133  0148  0083        	mov mp,a
 133  0149  0F00     R  	mov a,high offset _sbox
 133  014A  1F04        	clr sbp
 133  014B  1384        	adcm a,sbp
 133  014C  2000     E  	call _Crom2Prom
 133  014D  0080     E  	mov ra,a
 133  014E  0700     R  	mov a,_aes_encrypt_2[4]
 133  014F  0480     E  	xorm a,ra
 133  0150  0700     E  	mov a,ra
 133  0151  0400     R  	xor a,_aes_encrypt_2[32]
 133  0152  0080     R  	mov _aes_encrypt_2[4],a
"File: TI_aes_128_encr_only.c  Assembler  Version HGASM0202      Page 9

 134  0153              #line 134 "d:\sigfox-ep-example-holtek-bc68f2150-master-tb0\middleware\sigfox\manuf\TI_aes_128_encr_only.c"
 134  0153  0F00     R  	mov a,low offset _sbox
 134  0154  0300     R  	add a,_aes_encrypt_2[18]
 134  0155  0083        	mov mp,a
 134  0156  0F00     R  	mov a,high offset _sbox
 134  0157  1F04        	clr sbp
 134  0158  1384        	adcm a,sbp
 134  0159  2000     E  	call _Crom2Prom
 134  015A  0080     E  	mov ra,a
 134  015B  0700     E  	mov a,ra
 134  015C  0480     R  	xorm a,_aes_encrypt_2[5]
 135  015D              #line 135 "d:\sigfox-ep-example-holtek-bc68f2150-master-tb0\middleware\sigfox\manuf\TI_aes_128_encr_only.c"
 135  015D  0F00     R  	mov a,low offset _sbox
 135  015E  0300     R  	add a,_aes_encrypt_2[19]
 135  015F  0083        	mov mp,a
 135  0160  0F00     R  	mov a,high offset _sbox
 135  0161  1F04        	clr sbp
 135  0162  1384        	adcm a,sbp
 135  0163  2000     E  	call _Crom2Prom
 135  0164  0080     E  	mov ra,a
 135  0165  0700     E  	mov a,ra
 135  0166  0480     R  	xorm a,_aes_encrypt_2[6]
 136  0167              #line 136 "d:\sigfox-ep-example-holtek-bc68f2150-master-tb0\middleware\sigfox\manuf\TI_aes_128_encr_only.c"
 136  0167  0F00     R  	mov a,low offset _sbox
 136  0168  0300     R  	add a,_aes_encrypt_2[16]
 136  0169  0083        	mov mp,a
 136  016A  0F00     R  	mov a,high offset _sbox
 136  016B  1F04        	clr sbp
 136  016C  1384        	adcm a,sbp
 136  016D  2000     E  	call _Crom2Prom
 136  016E  0080     E  	mov ra,a
 136  016F  0700     E  	mov a,ra
 136  0170  0480     R  	xorm a,_aes_encrypt_2[7]
 136  0171  0F0C        	mov a,12
 136  0172  0080     E  	mov ra,a
 137  0173              #line 137 "d:\sigfox-ep-example-holtek-bc68f2150-master-tb0\middleware\sigfox\manuf\TI_aes_128_encr_only.c"
 137  0173  0F04        	mov a,4
 137  0174  0080     E  	mov rd,a
 137  0175  2800     R  	jmp _L8
 137  0176              _L18:
 121  0176              #line 121 "d:\sigfox-ep-example-holtek-bc68f2150-master-tb0\middleware\sigfox\manuf\TI_aes_128_encr_only.c"
 121  0176  0700     R  	mov a,_aes_encrypt_2[20]
 121  0177  0300     R  	add a,_aes_encrypt_2[20]
 121  0178  0080     E  	mov rb,a
 121  0179  0700     E  	mov a,rb
 121  017A  0380     E  	addm a,rb
 122  017B              #line 122 "d:\sigfox-ep-example-holtek-bc68f2150-master-tb0\middleware\sigfox\manuf\TI_aes_128_encr_only.c"
 122  017B  1F00     E  	clr rc
 122  017C  0700     E  	mov a,rb
 122  017D  0300     R  	add a,_aes_encrypt_2[0]
 122  017E  0080     R  	mov _aes_encrypt_2[25],a
 122  017F  0700     E  	mov a,rc
 122  0180  1300     R  	adc a,_aes_encrypt_2[1]
 122  0181  0080     R  	mov _aes_encrypt_2[26],a
 122  0182  0700     R  	mov a,_aes_encrypt_2[25]
 122  0183  0083        	mov mp,a
 122  0184  0700     R  	mov a,_aes_encrypt_2[26]
 122  0185  0084        	mov sbp,a
 122  0186  2000     E  	call _Crom2Prom
 122  0187  0080     R  	mov _aes_encrypt_2[31],a
"File: TI_aes_128_encr_only.c  Assembler  Version HGASM0202      Page 10

 122  0188  0F01        	mov a,1
 122  0189  0300     E  	add a,rb
 122  018A  0080     E  	mov rd,a
 122  018B  0F00        	mov a,0
 122  018C  1300     E  	adc a,rc
 122  018D  0080     E  	mov re,a
 122  018E  0700     E  	mov a,rd
 122  018F  0300     R  	add a,_aes_encrypt_2[0]
 122  0190  0080     R  	mov _aes_encrypt_2[23],a
 122  0191  0700     E  	mov a,re
 122  0192  1300     R  	adc a,_aes_encrypt_2[1]
 122  0193  0080     R  	mov _aes_encrypt_2[24],a
 122  0194  0700     R  	mov a,_aes_encrypt_2[23]
 122  0195  0083        	mov mp,a
 122  0196  0700     R  	mov a,_aes_encrypt_2[24]
 122  0197  0084        	mov sbp,a
 122  0198  2000     E  	call _Crom2Prom
 122  0199  0080     E  	mov ra,a
 122  019A  0700     R  	mov a,_aes_encrypt_2[31]
 122  019B  0480     E  	xorm a,ra
 122  019C  0F02        	mov a,2
 122  019D  0300     E  	add a,rb
 122  019E  0080     E  	mov rd,a
 122  019F  0F00        	mov a,0
 122  01A0  1300     E  	adc a,rc
 122  01A1  0080     E  	mov re,a
 122  01A2  0700     E  	mov a,rd
 122  01A3  0300     R  	add a,_aes_encrypt_2[0]
 122  01A4  0080     R  	mov _aes_encrypt_2[21],a
 122  01A5  0700     E  	mov a,re
 122  01A6  1300     R  	adc a,_aes_encrypt_2[1]
 122  01A7  0080     R  	mov _aes_encrypt_2[22],a
 122  01A8  0F03        	mov a,3
 122  01A9  0380     E  	addm a,rb
 122  01AA  0F00        	mov a,0
 122  01AB  1380     E  	adcm a,rc
 122  01AC  0700     E  	mov a,rb
 122  01AD  0300     R  	add a,_aes_encrypt_2[0]
 122  01AE  0080     R  	mov _aes_encrypt_2[27],a
 122  01AF  0700     E  	mov a,rc
 122  01B0  1300     R  	adc a,_aes_encrypt_2[1]
 122  01B1  0080     R  	mov _aes_encrypt_2[28],a
 122  01B2  0700     R  	mov a,_aes_encrypt_2[27]
 122  01B3  0083        	mov mp,a
 122  01B4  0700     R  	mov a,_aes_encrypt_2[28]
 122  01B5  0084        	mov sbp,a
 122  01B6  2000     E  	call _Crom2Prom
 122  01B7  0080     E  	mov rc,a
 122  01B8  0700     R  	mov a,_aes_encrypt_2[21]
 122  01B9  0083        	mov mp,a
 122  01BA  0700     R  	mov a,_aes_encrypt_2[22]
 122  01BB  0084        	mov sbp,a
 122  01BC  2000     E  	call _Crom2Prom
 122  01BD  0080     E  	mov rb,a
 122  01BE  0700     E  	mov a,rc
 122  01BF  0480     E  	xorm a,rb
 122  01C0  0700     E  	mov a,rb
 122  01C1  0400     E  	xor a,ra
 122  01C2  0080     R  	mov _aes_encrypt_2[29],a
 124  01C3              #line 124 "d:\sigfox-ep-example-holtek-bc68f2150-master-tb0\middleware\sigfox\manuf\TI_aes_128_encr_only.c"
"File: TI_aes_128_encr_only.c  Assembler  Version HGASM0202      Page 11

 124  01C3  0700     E  	mov a,ra
 124  01C4  2000     R  	call _galois_mul2
 124  01C5  0080     E  	mov ra,a
 124  01C6  0700     R  	mov a,_aes_encrypt_2[31]
 124  01C7  0480     E  	xorm a,ra
 124  01C8  0700     R  	mov a,_aes_encrypt_2[29]
 124  01C9  0480     E  	xorm a,ra
 124  01CA  0700     R  	mov a,_aes_encrypt_2[25]
 124  01CB  0083        	mov mp,a
 124  01CC  0700     R  	mov a,_aes_encrypt_2[26]
 124  01CD  0084        	mov sbp,a
 124  01CE  0700     E  	mov a,ra
 124  01CF  0082        	mov ir,a
 125  01D0              #line 125 "d:\sigfox-ep-example-holtek-bc68f2150-master-tb0\middleware\sigfox\manuf\TI_aes_128_encr_only.c"
 125  01D0  0700     R  	mov a,_aes_encrypt_2[23]
 125  01D1  0083        	mov mp,a
 125  01D2  0700     R  	mov a,_aes_encrypt_2[24]
 125  01D3  0084        	mov sbp,a
 125  01D4  2000     E  	call _Crom2Prom
 125  01D5  0080     R  	mov _aes_encrypt_2[25],a
 125  01D6  0700     R  	mov a,_aes_encrypt_2[21]
 125  01D7  0083        	mov mp,a
 125  01D8  0700     R  	mov a,_aes_encrypt_2[22]
 125  01D9  0084        	mov sbp,a
 125  01DA  2000     E  	call _Crom2Prom
 125  01DB  0080     E  	mov ra,a
 125  01DC  0700     R  	mov a,_aes_encrypt_2[25]
 125  01DD  0480     E  	xorm a,ra
 125  01DE  0700     E  	mov a,ra
 125  01DF  2000     R  	call _galois_mul2
 125  01E0  0080     E  	mov ra,a
 125  01E1  0700     R  	mov a,_aes_encrypt_2[25]
 125  01E2  0480     E  	xorm a,ra
 125  01E3  0700     R  	mov a,_aes_encrypt_2[29]
 125  01E4  0480     E  	xorm a,ra
 125  01E5  0700     R  	mov a,_aes_encrypt_2[23]
 125  01E6  0083        	mov mp,a
 125  01E7  0700     R  	mov a,_aes_encrypt_2[24]
 125  01E8  0084        	mov sbp,a
 125  01E9  0700     E  	mov a,ra
 125  01EA  0082        	mov ir,a
 126  01EB              #line 126 "d:\sigfox-ep-example-holtek-bc68f2150-master-tb0\middleware\sigfox\manuf\TI_aes_128_encr_only.c"
 126  01EB  0700     R  	mov a,_aes_encrypt_2[21]
 126  01EC  0083        	mov mp,a
 126  01ED  0700     R  	mov a,_aes_encrypt_2[22]
 126  01EE  0084        	mov sbp,a
 126  01EF  2000     E  	call _Crom2Prom
 126  01F0  0080     R  	mov _aes_encrypt_2[23],a
 126  01F1  0700     R  	mov a,_aes_encrypt_2[27]
 126  01F2  0083        	mov mp,a
 126  01F3  0700     R  	mov a,_aes_encrypt_2[28]
 126  01F4  0084        	mov sbp,a
 126  01F5  2000     E  	call _Crom2Prom
 126  01F6  0080     E  	mov ra,a
 126  01F7  0700     R  	mov a,_aes_encrypt_2[23]
 126  01F8  0480     E  	xorm a,ra
 126  01F9  0700     E  	mov a,ra
 126  01FA  2000     R  	call _galois_mul2
 126  01FB  0080     E  	mov ra,a
 126  01FC  0700     R  	mov a,_aes_encrypt_2[23]
"File: TI_aes_128_encr_only.c  Assembler  Version HGASM0202      Page 12

 126  01FD  0480     E  	xorm a,ra
 126  01FE  0700     R  	mov a,_aes_encrypt_2[29]
 126  01FF  0480     E  	xorm a,ra
 126  0200  0700     R  	mov a,_aes_encrypt_2[21]
 126  0201  0083        	mov mp,a
 126  0202  0700     R  	mov a,_aes_encrypt_2[22]
 126  0203  0084        	mov sbp,a
 126  0204  0700     E  	mov a,ra
 126  0205  0082        	mov ir,a
 127  0206              #line 127 "d:\sigfox-ep-example-holtek-bc68f2150-master-tb0\middleware\sigfox\manuf\TI_aes_128_encr_only.c"
 127  0206  0700     R  	mov a,_aes_encrypt_2[27]
 127  0207  0083        	mov mp,a
 127  0208  0700     R  	mov a,_aes_encrypt_2[28]
 127  0209  0084        	mov sbp,a
 127  020A  2000     E  	call _Crom2Prom
 127  020B  0080     R  	mov _aes_encrypt_2[21],a
 127  020C  0700     R  	mov a,_aes_encrypt_2[21]
 127  020D  0400     R  	xor a,_aes_encrypt_2[31]
 127  020E  0080     E  	mov ra,a
 127  020F  0700     E  	mov a,ra
 127  0210  2000     R  	call _galois_mul2
 127  0211  0080     E  	mov ra,a
 127  0212  0700     R  	mov a,_aes_encrypt_2[21]
 127  0213  0480     E  	xorm a,ra
 127  0214  0700     R  	mov a,_aes_encrypt_2[29]
 127  0215  0480     E  	xorm a,ra
 127  0216  0700     R  	mov a,_aes_encrypt_2[27]
 127  0217  0083        	mov mp,a
 127  0218  0700     R  	mov a,_aes_encrypt_2[28]
 127  0219  0084        	mov sbp,a
 127  021A  0700     E  	mov a,ra
 127  021B  0082        	mov ir,a
 119  021C              #line 119 "d:\sigfox-ep-example-holtek-bc68f2150-master-tb0\middleware\sigfox\manuf\TI_aes_128_encr_only.c"
 119  021C  1480     R  	inc _aes_encrypt_2[20]
 119  021D  0700     R  	mov a,_aes_encrypt_2[20]
 119  021E  0A04        	sub a,4
 119  021F  390A        	snz z
 119  0220  2800     R  	jmp _L18
 119  0221  2800     R  	jmp _L9
 119  0222              _L8:
 138  0222              #line 138 "d:\sigfox-ep-example-holtek-bc68f2150-master-tb0\middleware\sigfox\manuf\TI_aes_128_encr_only.c"
 138  0222  0700     E  	mov a,rd
 138  0223  0080     E  	mov rb,a
 138  0224  1F00     E  	clr rc
 138  0225  0F00     R  	mov a,low(offset _aes_encrypt_2)
 138  0226  0300     E  	add a,rb
 138  0227  0083        	mov mp,a
 138  0228  0F00     R  	mov a,high(offset _aes_encrypt_2)
 138  0229  1300     E  	adc a,rc
 138  022A  0084        	mov sbp,a
 138  022B  2000     E  	call _Crom2Prom
 138  022C  0080     E  	mov re,a
 138  022D  0700     E  	mov a,rb
 138  022E  0300     R  	add a,_aes_encrypt_2[33]
 138  022F  0083        	mov mp,a
 138  0230  0700     E  	mov a,rc
 138  0231  1300     R  	adc a,_aes_encrypt_2[34]
 138  0232  0084        	mov sbp,a
 138  0233  2000     E  	call _Crom2Prom
 138  0234  0080     R  	mov _aes_encrypt_2[20],a
"File: TI_aes_128_encr_only.c  Assembler  Version HGASM0202      Page 13

 138  0235  0700     E  	mov a,re
 138  0236  0400     R  	xor a,_aes_encrypt_2[20]
 138  0237  0080     E  	mov rb,a
 138  0238  0700     E  	mov a,rb
 138  0239  0082        	mov ir,a
 137  023A              #line 137 "d:\sigfox-ep-example-holtek-bc68f2150-master-tb0\middleware\sigfox\manuf\TI_aes_128_encr_only.c"
 137  023A  1480     E  	inc rd
 137  023B  1780     E  	sdz ra
 137  023C  2800     R  	jmp _L8
 141  023D              #line 141 "d:\sigfox-ep-example-holtek-bc68f2150-master-tb0\middleware\sigfox\manuf\TI_aes_128_encr_only.c"
 141  023D  0700     R  	mov a,_aes_encrypt_2[32]
 141  023E  2000     R  	call _galois_mul2
 141  023F  0080     R  	mov _aes_encrypt_2[32],a
  92  0240              #line 92 "d:\sigfox-ep-example-holtek-bc68f2150-master-tb0\middleware\sigfox\manuf\TI_aes_128_encr_only.c"
  92  0240  1480     R  	inc _aes_encrypt_2[30]
  92  0241  0700     R  	mov a,_aes_encrypt_2[30]
  92  0242  0A0A        	sub a,10
  92  0243  390A        	snz z
  92  0244  2800     R  	jmp _L4
  92  0245  0F10        	mov a,16
  92  0246  0080     R  	mov _aes_encrypt_2[20],a
  92  0247  1F00     E  	clr ra
 146  0248              #line 146 "d:\sigfox-ep-example-holtek-bc68f2150-master-tb0\middleware\sigfox\manuf\TI_aes_128_encr_only.c"
 146  0248  0F00     R  	mov a,low offset _aes_encrypt_2
 146  0249  0080     E  	mov rf,a
 146  024A  0F00     R  	mov a,high offset _aes_encrypt_2
 146  024B  0080     E  	mov rg,a
 146  024C  0F04        	mov a,4
 146  024D  0380     E  	addm a,rf
 146  024E  0F00        	mov a,0
 146  024F  1380     E  	adcm a,rg
 146  0250              _L15:
 146  0250  0700     E  	mov a,ra
 146  0251  0080     E  	mov rd,a
 146  0252  1F00     E  	clr re
 146  0253  0700     E  	mov a,rd
 146  0254  0300     R  	add a,_aes_encrypt_2[0]
 146  0255  0080     E  	mov rb,a
 146  0256  0700     E  	mov a,re
 146  0257  1300     R  	adc a,_aes_encrypt_2[1]
 146  0258  0080     E  	mov rc,a
 146  0259  0700     E  	mov a,rb
 146  025A  0083        	mov mp,a
 146  025B  0700     E  	mov a,rc
 146  025C  0084        	mov sbp,a
 146  025D  2000     E  	call _Crom2Prom
 146  025E  0080     E  	mov rh,a
 146  025F  0700     E  	mov a,rd
 146  0260  0300     E  	add a,rf
 146  0261  0083        	mov mp,a
 146  0262  0700     E  	mov a,re
 146  0263  1300     E  	adc a,rg
 146  0264  0084        	mov sbp,a
 146  0265  2000     E  	call _Crom2Prom
 146  0266  0080     E  	mov rd,a
 146  0267  0700     E  	mov a,rd
 146  0268  0480     E  	xorm a,rh
 146  0269  0700     E  	mov a,rb
 146  026A  0083        	mov mp,a
 146  026B  0700     E  	mov a,rc
"File: TI_aes_128_encr_only.c  Assembler  Version HGASM0202      Page 14

 146  026C  0084        	mov sbp,a
 146  026D  0700     E  	mov a,rh
 146  026E  0082        	mov ir,a
 145  026F              #line 145 "d:\sigfox-ep-example-holtek-bc68f2150-master-tb0\middleware\sigfox\manuf\TI_aes_128_encr_only.c"
 145  026F  1480     E  	inc ra
 145  0270  1780     R  	sdz _aes_encrypt_2[20]
 145  0271  2800     R  	jmp _L15
 145  0272  0003        	ret
 145  0273              _aes_encrypt endp
 145  0273              #line 145 "d:\sigfox-ep-example-holtek-bc68f2150-master-tb0\middleware\sigfox\manuf\TI_aes_128_encr_only.c"
 145  0273              #pragma debug scope 1 1
 145  0273              public _sbox
 145  0000              @crom	.section 'crom'
  41  0000              #line 41 "d:\sigfox-ep-example-holtek-bc68f2150-master-tb0\middleware\sigfox\manuf\TI_aes_128_encr_only.c"
  41  0000              @crom	.section	'crom'
  41  0000              _sbox:
  41  0000              #pragma debug array 44 8 256 1
  41  0000              #pragma debug array 44 8 256 1
  41  0000              #pragma debug variable 44 1 _sbox "sbox"
  41  0000              	db 99
  41  0001              	db 124
  41  0001              	db 119
  41  0002              	db 123
  41  0002              	db -14
  41  0003              	db 107
  41  0003              	db 111
  41  0004              	db -59
  41  0004              	db 48
  41  0005              	db 1
  41  0005              	db 103
  41  0006              	db 43
  41  0006              	db -2
  41  0007              	db -41
  41  0007              	db -85
  41  0008              	db 118
  41  0008              	db -54
  41  0009              	db -126
  41  0009              	db -55
  41  000A              	db 125
  41  000A              	db -6
  41  000B              	db 89
  41  000B              	db 71
  41  000C              	db -16
  41  000C              	db -83
  41  000D              	db -44
  41  000D              	db -94
  41  000E              	db -81
  41  000E              	db -100
  41  000F              	db -92
  41  000F              	db 114
  41  0010              	db -64
  41  0010              	db -73
  41  0011              	db -3
  41  0011              	db -109
  41  0012              	db 38
  41  0012              	db 54
  41  0013              	db 63
  41  0013              	db -9
  41  0014              	db -52
  41  0014              	db 52
"File: TI_aes_128_encr_only.c  Assembler  Version HGASM0202      Page 15

  41  0015              	db -91
  41  0015              	db -27
  41  0016              	db -15
  41  0016              	db 113
  41  0017              	db -40
  41  0017              	db 49
  41  0018              	db 21
  41  0018              	db 4
  41  0019              	db -57
  41  0019              	db 35
  41  001A              	db -61
  41  001A              	db 24
  41  001B              	db -106
  41  001B              	db 5
  41  001C              	db -102
  41  001C              	db 7
  41  001D              	db 18
  41  001D              	db -128
  41  001E              	db -30
  41  001E              	db -21
  41  001F              	db 39
  41  001F              	db -78
  41  0020              	db 117
  41  0020              	db 9
  41  0021              	db -125
  41  0021              	db 44
  41  0022              	db 26
  41  0022              	db 27
  41  0023              	db 110
  41  0023              	db 90
  41  0024              	db -96
  41  0024              	db 82
  41  0025              	db 59
  41  0025              	db -42
  41  0026              	db -77
  41  0026              	db 41
  41  0027              	db -29
  41  0027              	db 47
  41  0028              	db -124
  41  0028              	db 83
  41  0029              	db -47
  41  0029              	db 0
  41  002A              	db -19
  41  002A              	db 32
  41  002B              	db -4
  41  002B              	db -79
  41  002C              	db 91
  41  002C              	db 106
  41  002D              	db -53
  41  002D              	db -66
  41  002E              	db 57
  41  002E              	db 74
  41  002F              	db 76
  41  002F              	db 88
  41  0030              	db -49
  41  0030              	db -48
  41  0031              	db -17
  41  0031              	db -86
  41  0032              	db -5
  41  0032              	db 67
"File: TI_aes_128_encr_only.c  Assembler  Version HGASM0202      Page 16

  41  0033              	db 77
  41  0033              	db 51
  41  0034              	db -123
  41  0034              	db 69
  41  0035              	db -7
  41  0035              	db 2
  41  0036              	db 127
  41  0036              	db 80
  41  0037              	db 60
  41  0037              	db -97
  41  0038              	db -88
  41  0038              	db 81
  41  0039              	db -93
  41  0039              	db 64
  41  003A              	db -113
  41  003A              	db -110
  41  003B              	db -99
  41  003B              	db 56
  41  003C              	db -11
  41  003C              	db -68
  41  003D              	db -74
  41  003D              	db -38
  41  003E              	db 33
  41  003E              	db 16
  41  003F              	db -1
  41  003F              	db -13
  41  0040              	db -46
  41  0040              	db -51
  41  0041              	db 12
  41  0041              	db 19
  41  0042              	db -20
  41  0042              	db 95
  41  0043              	db -105
  41  0043              	db 68
  41  0044              	db 23
  41  0044              	db -60
  41  0045              	db -89
  41  0045              	db 126
  41  0046              	db 61
  41  0046              	db 100
  41  0047              	db 93
  41  0047              	db 25
  41  0048              	db 115
  41  0048              	db 96
  41  0049              	db -127
  41  0049              	db 79
  41  004A              	db -36
  41  004A              	db 34
  41  004B              	db 42
  41  004B              	db -112
  41  004C              	db -120
  41  004C              	db 70
  41  004D              	db -18
  41  004D              	db -72
  41  004E              	db 20
  41  004E              	db -34
  41  004F              	db 94
  41  004F              	db 11
  41  0050              	db -37
  41  0050              	db -32
"File: TI_aes_128_encr_only.c  Assembler  Version HGASM0202      Page 17

  41  0051              	db 50
  41  0051              	db 58
  41  0052              	db 10
  41  0052              	db 73
  41  0053              	db 6
  41  0053              	db 36
  41  0054              	db 92
  41  0054              	db -62
  41  0055              	db -45
  41  0055              	db -84
  41  0056              	db 98
  41  0056              	db -111
  41  0057              	db -107
  41  0057              	db -28
  41  0058              	db 121
  41  0058              	db -25
  41  0059              	db -56
  41  0059              	db 55
  41  005A              	db 109
  41  005A              	db -115
  41  005B              	db -43
  41  005B              	db 78
  41  005C              	db -87
  41  005C              	db 108
  41  005D              	db 86
  41  005D              	db -12
  41  005E              	db -22
  41  005E              	db 101
  41  005F              	db 122
  41  005F              	db -82
  41  0060              	db 8
  41  0060              	db -70
  41  0061              	db 120
  41  0061              	db 37
  41  0062              	db 46
  41  0062              	db 28
  41  0063              	db -90
  41  0063              	db -76
  41  0064              	db -58
  41  0064              	db -24
  41  0065              	db -35
  41  0065              	db 116
  41  0066              	db 31
  41  0066              	db 75
  41  0067              	db -67
  41  0067              	db -117
  41  0068              	db -118
  41  0068              	db 112
  41  0069              	db 62
  41  0069              	db -75
  41  006A              	db 102
  41  006A              	db 72
  41  006B              	db 3
  41  006B              	db -10
  41  006C              	db 14
  41  006C              	db 97
  41  006D              	db 53
  41  006D              	db 87
  41  006E              	db -71
  41  006E              	db -122
"File: TI_aes_128_encr_only.c  Assembler  Version HGASM0202      Page 18

  41  006F              	db -63
  41  006F              	db 29
  41  0070              	db -98
  41  0070              	db -31
  41  0071              	db -8
  41  0071              	db -104
  41  0072              	db 17
  41  0072              	db 105
  41  0073              	db -39
  41  0073              	db -114
  41  0074              	db -108
  41  0074              	db -101
  41  0075              	db 30
  41  0075              	db -121
  41  0076              	db -23
  41  0076              	db -50
  41  0077              	db 85
  41  0077              	db 40
  41  0078              	db -33
  41  0078              	db -116
  41  0079              	db -95
  41  0079              	db -119
  41  007A              	db 13
  41  007A              	db -65
  41  007B              	db -26
  41  007B              	db 66
  41  007C              	db 104
  41  007C              	db 65
  41  007D              	db -103
  41  007D              	db 45
  41  007E              	db 15
  41  007E              	db -80
  41  007F              	db 84
  41  007F              	db -69
  41  0080              	db 22
  41  0080              
  41  0080              ; 
  41  0080              ; Generated by holtek-gcc v3.19, Thu May 23 14:41:50 2024
  41  0080              ; Rebuild 718
  41  0080              ; end of file


        0 Errors, 0